(lp1
(dp2
I132
(lp3
I4
aI3
aI1
aI2
aI5
asI133
(lp4
I3
aI1
aI2
aI5
asI140
(lp5
I2
aI5
asI143
(lp6
I2
aI3
asI159
(lp7
I5
aI2
aI3
asI161
(lp8
I5
aI2
aI3
aI1
aI4
asI162
(lp9
I2
aI5
aI3
aI1
aI4
asI163
(lp10
I5
aI3
asI165
(lp11
I5
aI3
aI1
aI4
aI2
asI166
(lp12
I3
aI1
aI5
aI4
aI2
asI167
(lp13
I1
aI3
aI5
asI172
(lp14
I4
aI3
aI1
aI5
asI45
(lp15
I3
asI200
(lp16
I3
aI4
aI2
asI178
(lp17
I2
aI4
aI3
asI188
(lp18
I1
aI5
asI191
(lp19
I5
aI2
aI1
asI193
(lp20
I2
aI5
aI1
aI3
aI4
asI194
(lp21
I5
aI1
asI196
(lp22
I2
asI72
(lp23
I1
aI5
aI3
aI4
asI76
(lp24
I4
aI2
aI3
asI82
(lp25
I4
aI3
aI2
aI5
aI1
asI83
(lp26
I3
aI2
aI5
aI1
asI87
(lp27
I1
aI2
aI4
aI3
aI5
asI116
(lp28
I2
aI5
aI3
aI1
asI119
(lp29
I3
aI2
asI124
(lp30
I3
aI2
aI1
asa(dp31
I3
(lp32
I5
aI1
aI3
aI4
aI2
asI7
(lp33
I4
aI3
aI2
asI137
(lp34
I5
aI3
aI1
asI139
(lp35
I5
aI3
aI1
asI141
(lp36
I3
aI1
aI2
aI5
aI4
asI142
(lp37
I1
aI3
aI2
asI153
(lp38
I4
aI1
aI3
aI5
asI160
(lp39
I4
aI3
aI5
aI1
aI2
asI161
(lp40
I3
aI4
aI5
aI1
asI37
(lp41
I1
aI4
aI3
aI2
asI167
(lp42
I1
asI174
(lp43
I2
asI51
(lp44
I2
aI4
aI1
aI3
asI184
(lp45
I2
asI189
(lp46
I3
aI4
aI2
aI5
asI196
(lp47
I5
aI2
aI4
aI1
aI3
asI197
(lp48
I2
aI4
aI5
aI1
aI3
asI198
(lp49
I2
aI4
asI78
(lp50
I2
aI5
asI81
(lp51
I4
aI1
asI91
(lp52
I5
aI4
aI2
aI1
asI109
(lp53
I1
asI116
(lp54
I3
aI4
asI121
(lp55
I5
aI2
aI1
aI3
aI4
asI122
(lp56
I5
aI2
aI1
aI3
aI4
asI123
(lp57
I2
aI1
aI3
aI4
aI5
asI124
(lp58
I1
aI2
asa(dp59
I136
(lp60
I4
aI2
asI17
(lp61
I2
asI146
(lp62
I5
aI1
aI2
asI148
(lp63
I2
asI21
(lp64
I2
aI5
aI1
asI151
(lp65
I5
aI2
asI153
(lp66
I3
aI1
asI158
(lp67
I4
asI162
(lp68
I1
aI2
aI3
aI5
aI4
asI163
(lp69
I1
asI169
(lp70
I1
aI4
aI5
asI173
(lp71
I5
asI175
(lp72
I2
aI4
aI3
asI184
(lp73
I1
asI190
(lp74
I5
aI1
asI192
(lp75
I2
asI67
(lp76
I2
asI198
(lp77
I3
asI76
(lp78
I5
aI1
aI4
aI3
asI89
(lp79
I2
aI3
aI4
aI5
aI1
asI100
(lp80
I1
aI2
aI4
asI108
(lp81
I4
aI3
aI5
aI1
aI2
asI109
(lp82
I3
aI4
aI5
aI1
asI114
(lp83
I5
aI1
aI4
aI3
asI116
(lp84
I1
aI5
aI4
aI3
aI2
asI117
(lp85
I5
asI119
(lp86
I1
aI4
aI3
aI5
aI2
asI120
(lp87
I4
asI124
(lp88
I1
aI5
asI127
(lp89
I1
aI4
aI2
aI3
asa(dp90
I2
(lp91
I2
aI5
aI3
asI132
(lp92
I1
aI3
aI2
asI139
(lp93
I3
aI5
aI2
aI4
aI1
asI140
(lp94
I5
aI2
aI4
asI142
(lp95
I5
aI4
asI144
(lp96
I4
aI2
aI3
aI5
aI1
asI145
(lp97
I2
aI3
aI5
aI1
asI153
(lp98
I5
aI1
aI2
aI3
aI4
asI154
(lp99
I1
aI5
aI2
aI3
aI4
asI155
(lp100
I5
asI157
(lp101
I5
aI3
asI159
(lp102
I5
aI3
aI1
aI4
aI2
asI160
(lp103
I3
aI1
aI4
aI5
aI2
asI161
(lp104
I3
aI1
aI4
asI170
(lp105
I4
aI1
aI2
aI5
aI3
asI171
(lp106
I1
aI2
aI5
aI3
asI178
(lp107
I3
aI1
aI5
aI2
aI4
asI179
(lp108
I1
aI3
aI5
asI183
(lp109
I1
aI3
aI5
aI2
aI4
asI184
(lp110
I3
asI187
(lp111
I5
aI3
asI189
(lp112
I5
aI1
aI4
asI191
(lp113
I4
asI196
(lp114
I4
aI5
aI1
asI199
(lp115
I5
asI77
(lp116
I1
asI83
(lp117
I4
aI2
aI5
aI1
asI100
(lp118
I3
aI2
aI5
aI1
asI107
(lp119
I3
aI1
aI4
aI2
aI5
asI108
(lp120
I1
aI4
aI3
asI116
(lp121
I4
asI120
(lp122
I1
aI4
aI5
aI2
aI3
asI121
(lp123
I4
asI124
(lp124
I2
aI5
asI127
(lp125
I1
aI3
asa(dp126
I131
(lp127
I1
aI4
aI3
aI5
asI5
(lp128
I2
asI142
(lp129
I4
aI3
aI1
aI5
asI150
(lp130
I5
aI3
asI152
(lp131
I3
aI5
aI1
asI155
(lp132
I3
asI161
(lp133
I2
asI165
(lp134
I4
aI1
aI5
aI2
aI3
asI166
(lp135
I1
aI5
aI2
aI4
asI169
(lp136
I4
aI5
asI172
(lp137
I4
asI179
(lp138
I3
asI184
(lp139
I5
aI3
asI186
(lp140
I3
aI5
aI1
asI189
(lp141
I4
asI64
(lp142
I1
asI195
(lp143
I2
aI1
aI5
aI3
aI4
asI196
(lp144
I1
aI5
asI70
(lp145
I1
aI4
aI2
aI3
asI199
(lp146
I5
asI82
(lp147
I2
aI3
aI1
aI4
asI93
(lp148
I3
asI96
(lp149
I1
aI5
aI4
aI3
asI100
(lp150
I5
aI3
aI2
aI1
asI102
(lp151
I3
aI2
aI1
aI5
aI4
asI103
(lp152
I2
aI1
aI5
asI107
(lp153
I1
aI4
aI5
aI3
asI115
(lp154
I4
asI120
(lp155
I5
aI3
aI1
aI2
asI122
(lp156
I1
aI2
aI4
asa(dp157
I128
(lp158
I3
asI3
(lp159
I2
aI1
asI136
(lp160
I5
aI2
asI10
(lp161
I3
aI4
aI2
aI1
asI149
(lp162
I5
asI151
(lp163
I1
aI2
aI4
aI5
asI157
(lp164
I4
aI3
aI1
aI5
asI35
(lp165
I4
aI1
aI2
aI3
asI165
(lp166
I4
aI1
asI29
(lp167
I2
aI3
aI5
aI1
asI182
(lp168
I3
aI4
asI186
(lp169
I5
aI3
aI1
aI2
aI4
asI187
(lp170
I3
aI5
aI1
aI2
aI4
asI188
(lp171
I3
aI5
aI1
asI138
(lp172
I2
aI3
asI191
(lp173
I3
asI195
(lp174
I5
asI197
(lp175
I2
aI1
aI3
asI71
(lp176
I2
aI1
aI3
asI94
(lp177
I2
aI5
asI97
(lp178
I4
aI1
aI3
asI104
(lp179
I3
aI1
asI109
(lp180
I4
aI3
aI1
aI2
asI119
(lp181
I1
aI2
aI5
asI125
(lp182
I5
asI127
(lp183
I1
aI3
aI2
aI5
aI4
asa(dp184
I129
(lp185
I4
aI3
asI2
(lp186
I4
asI134
(lp187
I4
aI3
aI1
aI5
asI140
(lp188
I5
aI2
aI4
aI3
aI1
asI141
(lp189
I2
aI4
aI5
aI3
aI1
asI142
(lp190
I2
aI4
asI147
(lp191
I3
aI2
aI4
aI5
asI20
(lp192
I5
asI26
(lp193
I5
asI160
(lp194
I5
aI2
aI3
aI4
aI1
asI161
(lp195
I2
aI3
aI5
aI4
aI1
asI162
(lp196
I3
aI5
asI165
(lp197
I3
aI2
aI4
aI1
aI5
asI166
(lp198
I2
aI4
aI3
asI51
(lp199
I5
aI1
aI4
asI189
(lp200
I1
aI3
aI5
aI4
aI2
asI190
(lp201
I3
asI193
(lp202
I4
aI2
aI1
aI5
asI68
(lp203
I2
aI5
aI4
aI1
aI3
asI200
(lp204
I5
aI2
asI75
(lp205
I4
aI1
aI2
aI5
aI3
asI82
(lp206
I2
aI1
aI3
aI4
aI5
asI91
(lp207
I5
aI2
asI93
(lp208
I5
aI2
asI103
(lp209
I3
aI2
asI109
(lp210
I1
aI2
aI5
aI4
aI3
asI110
(lp211
I2
asI113
(lp212
I5
aI2
aI4
aI1
aI3
asI114
(lp213
I2
aI5
aI4
aI1
aI3
asI115
(lp214
I5
aI2
asI117
(lp215
I4
aI2
asI125
(lp216
I1
aI2
asa(dp217
I132
(lp218
I5
aI2
aI1
aI4
asI134
(lp219
I2
aI1
asI9
(lp220
I1
asI139
(lp221
I4
aI1
asI15
(lp222
I2
aI4
asI147
(lp223
I1
aI3
aI5
aI2
aI4
asI148
(lp224
I1
asI22
(lp225
I4
aI3
aI2
aI1
aI5
asI153
(lp226
I3
aI5
asI157
(lp227
I2
aI4
aI5
asI164
(lp228
I5
aI1
aI3
aI4
aI2
asI165
(lp229
I5
aI1
aI3
aI4
aI2
asI166
(lp230
I1
aI3
aI4
aI2
aI5
asI167
(lp231
I3
asI177
(lp232
I4
aI5
aI3
aI1
asI180
(lp233
I4
aI1
aI2
asI189
(lp234
I4
aI2
aI5
asI62
(lp235
I5
aI4
aI3
asI64
(lp236
I3
aI1
aI4
aI5
asI195
(lp237
I4
aI1
aI5
aI3
aI2
asI196
(lp238
I1
aI5
aI3
aI2
asI199
(lp239
I2
aI1
aI3
asI87
(lp240
I5
asI96
(lp241
I2
aI4
asI100
(lp242
I1
aI5
asI103
(lp243
I4
asI118
(lp244
I1
aI2
aI5
aI3
aI4
asI119
(lp245
I2
asI122
(lp246
I2
asI125
(lp247
I5
asI127
(lp248
I3
aI1
asa(dp249
I128
(lp250
I1
asI4
(lp251
I3
asI139
(lp252
I2
aI3
aI1
asI17
(lp253
I2
aI5
aI1
aI3
aI4
asI146
(lp254
I3
aI4
aI2
asI161
(lp255
I4
aI3
aI5
aI2
aI1
asI162
(lp256
I3
aI5
aI2
aI1
asI165
(lp257
I2
aI1
asI42
(lp258
I1
asI45
(lp259
I3
aI4
aI2
aI1
asI176
(lp260
I5
aI1
asI178
(lp261
I3
asI182
(lp262
I3
aI5
aI2
aI1
asI57
(lp263
I3
aI1
aI4
asI186
(lp264
I1
aI3
asI200
(lp265
I1
asI84
(lp266
I5
aI2
aI4
aI1
aI3
asI85
(lp267
I2
aI5
aI4
aI1
aI3
asI88
(lp268
I2
aI5
aI1
aI4
asI108
(lp269
I1
aI3
aI5
aI2
asI113
(lp270
I5
aI4
asI115
(lp271
I3
aI4
aI2
aI1
asI124
(lp272
I5
aI2
asI126
(lp273
I5
aI1
asa(dp274
I129
(lp275
I3
asI193
(lp276
I4
aI5
aI1
asI10
(lp277
I3
asI142
(lp278
I4
aI2
asI148
(lp279
I5
aI4
aI1
asI150
(lp280
I4
aI1
aI5
aI2
aI3
asI151
(lp281
I1
aI4
aI5
aI2
asI196
(lp282
I5
asI158
(lp283
I1
asI164
(lp284
I1
asI169
(lp285
I5
aI3
aI1
aI4
asI171
(lp286
I1
aI5
aI4
asI174
(lp287
I1
aI3
aI4
aI5
asI30
(lp288
I5
aI2
aI1
aI3
asI183
(lp289
I2
asI181
(lp290
I5
aI1
asI65
(lp291
I5
aI3
aI1
aI2
aI4
asI66
(lp292
I5
aI3
aI1
aI2
aI4
asI68
(lp293
I1
aI2
aI3
asI198
(lp294
I5
aI1
aI3
aI2
asI200
(lp295
I1
aI5
aI3
aI2
aI4
asI36
(lp296
I5
aI1
aI3
asI104
(lp297
I3
aI4
aI5
aI1
asI108
(lp298
I3
asI111
(lp299
I5
aI2
aI1
asI113
(lp300
I1
aI4
asI121
(lp301
I5
aI3
asI123
(lp302
I5
aI2
aI3
asI125
(lp303
I3
aI1
asa(dp304
I128
(lp305
I2
aI5
aI3
aI4
asI131
(lp306
I2
aI5
aI4
asI134
(lp307
I4
aI3
aI1
aI5
aI2
asI135
(lp308
I3
aI1
aI5
aI2
asI140
(lp309
I3
aI2
asI15
(lp310
I3
aI4
asI145
(lp311
I5
aI2
asI147
(lp312
I2
aI5
asI152
(lp313
I1
aI2
aI4
aI3
aI5
asI153
(lp314
I2
asI27
(lp315
I2
aI1
asI166
(lp316
I1
aI4
aI3
aI2
asI174
(lp317
I5
aI1
aI2
aI3
asI176
(lp318
I2
asI183
(lp319
I2
aI1
aI5
asI60
(lp320
I5
asI62
(lp321
I4
asI195
(lp322
I1
aI5
asI198
(lp323
I2
asI74
(lp324
I2
asI80
(lp325
I3
aI4
aI2
asI188
(lp326
I4
aI1
asI102
(lp327
I3
aI5
aI4
asI105
(lp328
I5
aI1
aI2
aI3
asI107
(lp329
I1
aI2
aI5
aI3
aI4
asI108
(lp330
I1
asI112
(lp331
I1
aI2
asI127
(lp332
I4
aI2
aI5
aI3
aI1
asa(dp333
I128
(lp334
I1
aI5
aI4
asI131
(lp335
I4
aI3
aI1
aI5
asI7
(lp336
I2
asI136
(lp337
I1
aI2
aI3
aI4
aI5
asI137
(lp338
I2
asI146
(lp339
I1
aI3
asI150
(lp340
I2
aI1
aI3
asI23
(lp341
I4
aI2
asI30
(lp342
I2
asI160
(lp343
I4
aI2
asI34
(lp344
I1
aI4
asI164
(lp345
I1
aI5
asI167
(lp346
I3
aI2
aI5
aI4
aI1
asI168
(lp347
I2
aI3
aI5
asI174
(lp348
I4
aI3
aI2
aI5
asI180
(lp349
I4
aI2
aI1
aI3
aI5
asI181
(lp350
I2
aI1
aI3
aI5
asI192
(lp351
I4
aI5
aI3
aI1
asI196
(lp352
I4
aI1
aI3
asI70
(lp353
I1
aI2
aI3
aI4
asI97
(lp354
I5
aI4
aI2
aI1
asI102
(lp355
I5
aI2
aI1
aI4
asI104
(lp356
I2
aI1
aI4
aI5
aI3
asI105
(lp357
I2
aI1
asI110
(lp358
I5
aI3
aI1
asI112
(lp359
I1
aI5
aI2
asI115
(lp360
I2
asa(dp361
I128
(lp362
I2
aI3
aI1
aI5
aI4
asI129
(lp363
I3
aI1
asI133
(lp364
I3
aI4
aI5
aI2
asI138
(lp365
I3
aI2
asI12
(lp366
I5
aI1
aI4
aI2
asI149
(lp367
I4
asI24
(lp368
I5
aI3
aI2
aI4
asI154
(lp369
I3
aI4
aI5
aI1
asI27
(lp370
I2
aI5
aI3
asI159
(lp371
I3
aI1
aI4
aI2
aI5
asI160
(lp372
I1
aI4
aI3
asI168
(lp373
I4
aI1
aI2
aI3
aI5
asI169
(lp374
I1
aI4
aI2
aI3
asI177
(lp375
I2
asI183
(lp376
I5
asI185
(lp377
I5
asI58
(lp378
I2
asI187
(lp379
I3
aI1
aI5
aI2
asI61
(lp380
I5
aI3
aI1
aI4
asI63
(lp381
I1
aI5
aI4
asI194
(lp382
I1
aI5
asI198
(lp383
I2
aI5
aI1
asI71
(lp384
I2
asI78
(lp385
I2
aI5
aI4
aI3
asI100
(lp386
I3
aI2
asI108
(lp387
I4
aI2
asI112
(lp388
I5
aI2
asI114
(lp389
I3
aI2
asI191
(lp390
I4
aI5
asI126
(lp391
I5
aI2
asa(dp392
I138
(lp393
I4
aI1
aI5
aI2
aI3
asI139
(lp394
I1
aI5
aI2
aI3
asI142
(lp395
I5
aI2
aI1
aI3
aI4
asI143
(lp396
I2
aI5
aI1
aI3
aI4
asI144
(lp397
I5
aI1
asI146
(lp398
I1
aI3
aI5
aI2
aI4
asI147
(lp399
I3
asI20
(lp400
I1
aI4
aI5
aI2
asI151
(lp401
I2
aI1
aI3
aI4
aI5
asI152
(lp402
I2
aI1
asI28
(lp403
I4
aI1
asI163
(lp404
I5
aI2
aI3
asI165
(lp405
I5
aI3
asI167
(lp406
I5
aI3
aI1
aI4
aI2
asI168
(lp407
I3
aI1
aI4
aI2
aI5
asI169
(lp408
I3
aI1
aI4
asI176
(lp409
I3
aI1
aI2
aI5
aI4
asI177
(lp410
I1
aI2
aI3
asI185
(lp411
I3
aI2
aI4
aI1
aI5
asI186
(lp412
I2
aI4
aI3
asI199
(lp413
I1
aI5
aI2
asI83
(lp414
I1
aI5
aI3
aI2
asI100
(lp415
I1
aI3
asI107
(lp416
I4
aI1
aI3
asI113
(lp417
I3
aI4
asI119
(lp418
I5
aI3
aI1
asI121
(lp419
I5
aI1
aI2
asI123
(lp420
I2
asa(dp421
I131
(lp422
I5
aI2
asI133
(lp423
I1
aI5
asI9
(lp424
I1
aI3
aI2
aI4
aI5
asI139
(lp425
I4
aI1
asI145
(lp426
I1
aI2
asI23
(lp427
I2
aI4
aI1
aI5
aI3
asI153
(lp428
I4
aI5
aI1
aI3
asI156
(lp429
I4
asI40
(lp430
I5
aI3
asI169
(lp431
I1
aI2
aI3
aI4
aI5
asI170
(lp432
I1
asI137
(lp433
I5
aI2
asI184
(lp434
I2
aI3
aI5
asI57
(lp435
I3
aI5
aI2
aI1
asI189
(lp436
I4
asI192
(lp437
I2
aI4
aI5
aI1
aI3
asI193
(lp438
I4
aI5
asI196
(lp439
I1
aI3
aI5
aI2
asI73
(lp440
I2
asI77
(lp441
I2
aI1
asI93
(lp442
I4
aI1
aI2
asI17
(lp443
I3
aI1
asI108
(lp444
I1
aI3
asI168
(lp445
I5
aI1
aI2
aI3
aI4
asI114
(lp446
I5
aI1
aI3
aI2
aI4
asI115
(lp447
I1
aI3
aI2
aI4
aI5
asI116
(lp448
I3
asI123
(lp449
I4
asa(dp450
I130
(lp451
I1
aI5
aI2
asI133
(lp452
I5
asI135
(lp453
I2
asI145
(lp454
I2
aI3
aI5
asI152
(lp455
I5
aI2
asI154
(lp456
I2
aI5
asI157
(lp457
I2
aI3
aI5
asI161
(lp458
I1
aI5
asI164
(lp459
I5
aI2
aI4
aI1
asI166
(lp460
I2
aI5
asI169
(lp461
I4
aI1
aI2
aI3
aI5
asI170
(lp462
I1
aI2
aI3
aI4
asI54
(lp463
I4
aI1
aI2
asI184
(lp464
I4
aI3
aI2
aI5
asI191
(lp465
I5
aI3
asI193
(lp466
I4
aI2
aI1
asI68
(lp467
I1
aI5
aI3
asI71
(lp468
I3
asI77
(lp469
I4
aI3
asI104
(lp470
I5
asI106
(lp471
I1
aI5
aI2
asI109
(lp472
I2
asI121
(lp473
I3
aI1
asI126
(lp474
I2
aI3
aI5
aI1
aI4
asI127
(lp475
I3
aI5
asa(dp476
I149
(lp477
I4
aI2
aI5
aI1
aI3
asI161
(lp478
I4
aI3
aI1
aI2
asI187
(lp479
I1
aI2
aI5
aI3
aI4
asI103
(lp480
I3
aI4
aI2
aI1
asI136
(lp481
I2
aI3
aI4
asI188
(lp482
I1
asI192
(lp483
I2
asI141
(lp484
I3
aI1
asI79
(lp485
I2
aI3
aI5
aI4
asI51
(lp486
I4
aI2
aI5
asI117
(lp487
I2
aI3
asI150
(lp488
I4
aI2
aI5
aI1
asI185
(lp489
I5
aI1
aI2
aI3
asI90
(lp490
I2
aI3
aI4
aI5
asI155
(lp491
I3
asI124
(lp492
I2
aI5
aI1
aI3
asI154
(lp493
I1
aI3
aI2
aI5
aI4
asI127
(lp494
I2
asa(dp495
I171
(lp496
I3
aI2
aI1
aI5
asI6
(lp497
I1
aI3
aI4
asI138
(lp498
I3
aI1
aI2
asI18
(lp499
I3
aI1
asI152
(lp500
I5
asI154
(lp501
I2
asI27
(lp502
I3
aI4
asI163
(lp503
I4
asI43
(lp504
I5
aI1
aI3
asI181
(lp505
I5
aI2
aI3
aI1
asI183
(lp506
I2
aI5
asI186
(lp507
I3
aI5
aI1
asI190
(lp508
I1
aI4
aI5
asI194
(lp509
I2
aI4
aI5
aI1
aI3
asI195
(lp510
I4
aI5
asI69
(lp511
I4
aI2
aI5
aI1
asI198
(lp512
I4
aI1
aI3
aI2
aI5
asI199
(lp513
I1
aI3
aI4
aI2
asI82
(lp514
I2
asI89
(lp515
I4
aI5
aI3
asI92
(lp516
I3
aI4
aI2
aI5
aI1
asI101
(lp517
I5
aI2
aI1
asI103
(lp518
I1
aI2
asI112
(lp519
I3
aI5
asI115
(lp520
I4
aI1
aI2
aI3
asa(dp521
I132
(lp522
I5
aI4
aI2
asI134
(lp523
I2
aI1
aI3
aI5
asI10
(lp524
I3
aI5
asI139
(lp525
I4
aI3
asI13
(lp526
I3
aI4
aI1
asI147
(lp527
I1
aI3
asI21
(lp528
I3
asI151
(lp529
I2
asI154
(lp530
I1
aI2
asI158
(lp531
I5
aI4
aI1
asI160
(lp532
I1
aI3
aI2
aI5
asI6
(lp533
I3
aI2
aI5
aI4
aI1
asI169
(lp534
I4
asI176
(lp535
I3
aI2
aI5
aI4
asI181
(lp536
I4
aI3
asI191
(lp537
I2
aI1
asI197
(lp538
I5
aI3
aI4
aI1
aI2
asI198
(lp539
I3
aI4
aI1
aI2
aI5
asI199
(lp540
I4
aI1
aI2
asI82
(lp541
I1
aI5
asI103
(lp542
I1
aI3
aI5
aI2
aI4
asI104
(lp543
I3
asI107
(lp544
I2
aI4
asI113
(lp545
I2
aI4
aI5
aI3
asI118
(lp546
I3
aI5
aI4
aI2
aI1
asI119
(lp547
I5
aI4
aI2
asI121
(lp548
I4
aI2
aI1
aI5
aI3
asI122
(lp549
I2
aI1
aI5
aI3
asI127
(lp550
I2
aI4
aI1
asa(dp551
I130
(lp552
I5
aI4
aI1
asI132
(lp553
I1
aI5
aI4
aI2
asI135
(lp554
I1
aI5
aI2
aI4
asI138
(lp555
I2
aI1
aI4
aI3
aI5
asI139
(lp556
I1
aI4
asI150
(lp557
I5
asI23
(lp558
I4
aI1
aI2
aI3
aI5
asI152
(lp559
I2
aI1
aI3
asI164
(lp560
I3
aI5
asI167
(lp561
I2
aI5
aI1
aI4
asI172
(lp562
I4
asI175
(lp563
I2
aI4
aI5
aI3
asI179
(lp564
I5
aI3
aI1
aI2
asI181
(lp565
I3
aI1
aI5
aI2
aI4
asI182
(lp566
I1
aI5
aI2
asI185
(lp567
I5
asI187
(lp568
I1
aI3
asI197
(lp569
I3
aI1
aI2
aI5
asI101
(lp570
I1
aI3
asI108
(lp571
I3
aI1
aI5
aI2
aI4
asI109
(lp572
I1
aI5
aI2
asI112
(lp573
I5
aI4
asI114
(lp574
I3
aI5
aI2
aI1
asI117
(lp575
I5
aI1
asI119
(lp576
I3
asI122
(lp577
I3
aI4
aI5
aI1
asa(dp578
I131
(lp579
I4
asI134
(lp580
I4
aI1
aI2
asI12
(lp581
I5
aI1
asI14
(lp582
I5
aI1
aI4
aI3
aI2
asI145
(lp583
I5
aI1
aI4
aI2
aI3
asI146
(lp584
I1
aI5
aI4
aI2
aI3
asI147
(lp585
I5
asI149
(lp586
I1
aI4
aI5
aI2
aI3
asI150
(lp587
I4
asI25
(lp588
I5
asI154
(lp589
I3
aI5
asI27
(lp590
I1
aI4
aI2
asI157
(lp591
I4
aI1
aI3
aI5
aI2
asI158
(lp592
I1
aI3
aI5
aI4
asI162
(lp593
I4
aI2
aI1
aI3
asI38
(lp594
I4
aI2
asI171
(lp595
I1
asI177
(lp596
I5
aI1
aI4
aI3
aI2
asI178
(lp597
I1
aI5
aI4
aI3
aI2
asI179
(lp598
I5
asI181
(lp599
I1
aI5
aI4
aI3
aI2
asI182
(lp600
I5
asI184
(lp601
I3
aI2
aI1
aI5
asI191
(lp602
I3
aI5
aI2
aI4
aI1
asI192
(lp603
I5
aI2
aI4
asI194
(lp604
I2
aI5
aI4
aI1
aI3
asI195
(lp605
I5
aI4
asI197
(lp606
I4
aI1
aI5
aI3
asI72
(lp607
I3
asI75
(lp608
I5
aI4
aI3
asI77
(lp609
I3
aI1
aI4
aI2
asI109
(lp610
I4
aI3
aI1
aI2
asI122
(lp611
I5
aI4
aI1
aI2
aI3
asI123
(lp612
I4
aI1
aI2
aI3
aI5
asI124
(lp613
I1
aI2
aI3
aI4
asa(dp614
I130
(lp615
I3
aI4
aI5
asI134
(lp616
I2
aI1
aI3
aI5
aI4
asI135
(lp617
I1
aI2
asI141
(lp618
I1
aI3
aI2
aI4
aI5
asI142
(lp619
I1
asI153
(lp620
I3
aI5
aI1
asI26
(lp621
I4
aI3
aI2
aI5
asI156
(lp622
I1
aI2
aI5
asI160
(lp623
I2
aI5
aI3
asI164
(lp624
I3
aI2
asI174
(lp625
I2
aI5
aI4
aI3
asI177
(lp626
I4
aI3
aI1
aI5
aI2
asI178
(lp627
I3
aI4
aI1
aI5
asI56
(lp628
I1
aI3
aI4
aI5
asI188
(lp629
I5
aI3
aI2
asI190
(lp630
I5
aI3
aI2
asI192
(lp631
I2
aI4
aI1
asI69
(lp632
I1
aI5
aI3
aI2
aI4
asI80
(lp633
I4
aI5
asI84
(lp634
I1
asI89
(lp635
I5
aI3
aI4
aI2
asI101
(lp636
I5
aI3
aI1
aI2
aI4
asI102
(lp637
I3
aI1
aI2
aI5
aI4
asI103
(lp638
I1
aI3
aI2
asI112
(lp639
I5
asI114
(lp640
I5
aI4
aI1
aI2
asI116
(lp641
I1
aI2
aI5
aI3
asI120
(lp642
I4
aI2
aI1
asa(dp643
I131
(lp644
I5
aI4
aI2
aI1
aI3
asI132
(lp645
I5
aI4
aI2
aI1
aI3
asI133
(lp646
I4
aI2
aI1
aI3
aI5
asI134
(lp647
I2
aI1
aI3
aI5
asI13
(lp648
I5
aI2
aI4
aI1
asI146
(lp649
I2
aI1
asI25
(lp650
I4
aI5
aI1
aI3
aI2
asI155
(lp651
I2
aI1
aI3
aI5
aI4
asI156
(lp652
I1
aI3
asI162
(lp653
I5
aI2
asI36
(lp654
I1
aI4
aI3
asI165
(lp655
I5
aI4
asI167
(lp656
I5
aI3
aI2
aI1
asI169
(lp657
I2
aI5
aI1
asI172
(lp658
I3
asI183
(lp659
I3
aI1
aI5
aI4
asI189
(lp660
I5
aI1
aI2
aI4
asI191
(lp661
I5
asI193
(lp662
I4
aI3
asI66
(lp663
I2
asI197
(lp664
I4
aI2
aI3
aI5
aI1
asI198
(lp665
I2
aI4
aI3
aI5
asI82
(lp666
I5
aI3
asI164
(lp667
I2
aI5
aI4
aI3
aI1
asI95
(lp668
I5
asI97
(lp669
I4
aI5
aI3
aI1
aI2
asI98
(lp670
I5
aI3
aI4
aI1
asI100
(lp671
I4
aI3
aI1
asI106
(lp672
I1
aI4
aI5
aI3
asI110
(lp673
I3
asI113
(lp674
I3
aI4
aI5
aI1
aI2
asI114
(lp675
I4
aI3
aI5
asI118
(lp676
I3
asI122
(lp677
I3
aI1
aI4
aI2
aI5
asI123
(lp678
I1
aI3
aI4
asa(dp679
I128
(lp680
I4
aI3
aI2
aI1
aI5
asI129
(lp681
I3
aI2
aI1
aI5
asI155
(lp682
I2
aI5
aI1
aI4
aI3
asI101
(lp683
I2
asI134
(lp684
I5
asI193
(lp685
I5
aI4
aI3
asI136
(lp686
I1
aI3
asI108
(lp687
I3
aI5
asI195
(lp688
I3
aI4
aI5
aI2
asI111
(lp689
I2
aI5
aI3
aI1
aI4
asI112
(lp690
I5
aI3
asI114
(lp691
I3
aI1
aI4
asI163
(lp692
I3
aI4
aI1
aI2
asI150
(lp693
I2
aI3
aI1
aI5
asI186
(lp694
I1
aI5
asI123
(lp695
I1
aI2
aI5
aI4
asI156
(lp696
I2
aI5
asI189
(lp697
I4
aI2
aI5
aI3
aI1
asI190
(lp698
I2
aI5
aI3
aI4
asI159
(lp699
I1
aI5
asa(dp700
I130
(lp701
I3
aI2
aI4
asI136
(lp702
I2
aI5
aI3
aI4
aI1
asI137
(lp703
I5
aI2
asI139
(lp704
I2
aI5
asI143
(lp705
I5
aI2
aI4
asI145
(lp706
I2
aI4
asI150
(lp707
I3
aI4
aI1
aI2
aI5
asI151
(lp708
I3
aI4
aI1
asI164
(lp709
I3
aI1
asI40
(lp710
I5
aI3
asI174
(lp711
I1
asI177
(lp712
I2
aI5
aI3
aI1
asI180
(lp713
I5
aI3
aI2
asI182
(lp714
I2
aI1
aI5
asI186
(lp715
I3
asI59
(lp716
I2
aI5
aI4
aI3
aI1
asI190
(lp717
I1
aI5
asI193
(lp718
I3
aI5
aI1
aI4
asI66
(lp719
I4
aI2
asI197
(lp720
I1
aI4
aI2
aI3
aI5
asI198
(lp721
I4
asI113
(lp722
I5
aI4
aI3
asI115
(lp723
I3
aI2
aI1
aI5
asI120
(lp724
I1
aI3
aI2
asI126
(lp725
I1
aI3
asa(dp726
I128
(lp727
I3
aI1
aI5
asI133
(lp728
I5
aI1
aI3
asI135
(lp729
I3
asI140
(lp730
I4
aI2
aI3
asI148
(lp731
I2
aI4
aI1
aI3
asI156
(lp732
I2
aI5
aI4
aI3
aI1
asI157
(lp733
I5
aI2
asI159
(lp734
I2
aI4
aI3
aI1
aI5
asI160
(lp735
I4
aI3
asI37
(lp736
I5
aI3
aI2
asI167
(lp737
I3
aI1
aI2
aI4
asI180
(lp738
I3
asI186
(lp739
I2
aI3
aI1
aI5
asI195
(lp740
I4
asI74
(lp741
I5
asI121
(lp742
I1
aI3
aI2
aI5
asI101
(lp743
I1
aI5
asI104
(lp744
I2
aI1
aI3
asI112
(lp745
I2
asI117
(lp746
I1
aI2
aI5
aI4
aI3
asI118
(lp747
I2
asI20
(lp748
I3
aI4
aI5
asI126
(lp749
I5
aI3
aI1
aI2
asa(dp750
I132
(lp751
I3
aI4
aI5
aI1
aI2
asI5
(lp752
I4
aI5
aI3
asI172
(lp753
I4
aI2
aI1
aI3
asI10
(lp754
I3
aI1
aI4
aI5
asI139
(lp755
I1
aI4
aI5
aI3
aI2
asI140
(lp756
I1
asI145
(lp757
I2
aI5
aI1
asI148
(lp758
I5
asI150
(lp759
I2
aI4
aI5
aI3
asI154
(lp760
I5
aI3
asI156
(lp761
I3
aI2
aI5
aI4
aI1
asI157
(lp762
I2
aI5
aI3
asI133
(lp763
I4
aI3
aI5
asI160
(lp764
I5
aI4
aI3
asI162
(lp765
I5
aI4
aI3
aI2
asI164
(lp766
I4
aI5
aI3
aI2
asI167
(lp767
I4
aI3
aI5
aI2
asI40
(lp768
I5
aI3
aI1
asI42
(lp769
I5
aI1
aI4
asI171
(lp770
I4
aI2
aI1
aI3
aI5
asI44
(lp771
I1
asI55
(lp772
I3
aI1
aI4
asI185
(lp773
I5
aI4
aI2
aI3
aI1
asI186
(lp774
I4
aI2
aI5
aI3
aI1
asI187
(lp775
I4
aI2
aI5
aI3
asI138
(lp776
I5
aI1
aI4
aI3
aI2
asI191
(lp777
I2
aI3
aI1
aI4
asI105
(lp778
I1
aI4
aI3
aI2
asI119
(lp779
I1
aI2
aI4
aI3
aI5
asI120
(lp780
I2
asa(dp781
I133
(lp782
I2
asI136
(lp783
I2
aI3
aI5
asI140
(lp784
I3
asI14
(lp785
I4
aI2
aI3
asI149
(lp786
I1
aI5
aI3
aI2
asI24
(lp787
I1
asI153
(lp788
I3
asI161
(lp789
I3
aI1
aI4
aI5
asI170
(lp790
I3
aI5
aI2
aI4
asI173
(lp791
I3
aI2
asI177
(lp792
I2
aI4
aI5
aI3
asI183
(lp793
I3
aI5
aI1
aI2
aI4
asI184
(lp794
I5
aI3
aI1
asI186
(lp795
I1
aI5
aI3
asI189
(lp796
I1
aI5
aI2
asI62
(lp797
I4
aI1
aI2
aI5
aI3
asI63
(lp798
I1
aI2
aI4
aI5
asI192
(lp799
I1
aI2
asI72
(lp800
I2
aI3
aI5
aI4
asI100
(lp801
I4
aI3
asI104
(lp802
I4
asI113
(lp803
I2
aI4
aI5
aI1
asI119
(lp804
I2
aI5
aI4
aI1
aI3
asI120
(lp805
I2
aI5
asI123
(lp806
I4
aI1
aI3
aI2
aI5
asI124
(lp807
I4
aI1
aI3
aI2
asI21
(lp808
I2
aI5
asa(dp809
I128
(lp810
I1
aI5
aI4
asI132
(lp811
I5
asI134
(lp812
I4
aI2
aI3
aI1
asI7
(lp813
I3
aI2
aI5
aI4
aI1
asI144
(lp814
I3
aI5
asI147
(lp815
I1
aI3
aI4
aI2
asI28
(lp816
I5
aI2
aI3
aI1
asI158
(lp817
I4
aI5
aI3
aI1
asI161
(lp818
I3
aI1
aI4
asI179
(lp819
I1
asI54
(lp820
I3
aI4
aI1
aI2
asI183
(lp821
I4
aI2
asI70
(lp822
I2
aI4
asI200
(lp823
I1
asI74
(lp824
I3
aI5
aI4
aI2
asI78
(lp825
I3
aI5
aI2
aI4
asI81
(lp826
I4
aI1
asI100
(lp827
I2
asI104
(lp828
I2
aI4
aI5
aI3
asI109
(lp829
I5
aI1
aI3
asI111
(lp830
I3
asI121
(lp831
I5
aI4
aI3
asI123
(lp832
I5
aI4
aI3
aI1
aI2
asI124
(lp833
I4
aI5
aI3
aI1
aI2
asI125
(lp834
I4
aI5
aI3
aI1
asa(dp835
I198
(lp836
I3
aI5
aI1
asI66
(lp837
I4
aI3
aI1
aI5
aI2
asI180
(lp838
I1
asI132
(lp839
I3
asI185
(lp840
I3
aI5
aI1
aI2
asI166
(lp841
I2
aI5
aI3
asI137
(lp842
I3
aI5
aI4
aI1
aI2
asI138
(lp843
I3
aI5
aI4
asI141
(lp844
I1
aI4
aI3
aI5
asI175
(lp845
I4
aI2
aI5
asI146
(lp846
I5
aI4
aI1
asI195
(lp847
I4
aI5
asI148
(lp848
I1
aI5
aI4
aI3
asI85
(lp849
I1
aI4
aI2
asI169
(lp850
I1
aI3
aI2
asI152
(lp851
I4
aI3
aI2
aI1
asI121
(lp852
I5
aI3
asI123
(lp853
I5
aI2
aI4
asI188
(lp854
I3
asI125
(lp855
I4
aI2
asI30
(lp856
I4
aI1
aI3
asa(dp857
I130
(lp858
I2
aI5
aI1
aI3
asI4
(lp859
I3
aI1
aI5
aI4
asI133
(lp860
I1
aI5
asI8
(lp861
I1
aI3
aI5
aI2
asI143
(lp862
I1
aI4
asI16
(lp863
I3
aI4
aI5
aI1
aI2
asI151
(lp864
I2
aI3
aI4
asI158
(lp865
I1
aI3
aI4
aI2
aI5
asI159
(lp866
I3
asI177
(lp867
I3
aI4
aI5
aI1
aI2
asI169
(lp868
I5
aI1
aI3
aI2
aI4
asI170
(lp869
I1
aI3
aI5
aI2
aI4
asI171
(lp870
I3
asI174
(lp871
I2
aI5
aI3
asI136
(lp872
I1
asI178
(lp873
I4
aI5
aI1
asI181
(lp874
I5
asI183
(lp875
I1
aI5
aI3
aI4
aI2
asI184
(lp876
I5
asI186
(lp877
I5
aI4
aI3
asI188
(lp878
I3
aI4
aI1
aI2
asI67
(lp879
I5
aI4
aI2
asI73
(lp880
I2
aI5
aI4
asI93
(lp881
I4
aI5
aI2
aI1
asI97
(lp882
I5
aI1
asI99
(lp883
I1
aI2
aI4
aI3
aI5
asI100
(lp884
I2
asI109
(lp885
I3
aI4
aI2
aI5
asI114
(lp886
I4
aI1
aI3
aI5
asI124
(lp887
I1
aI2
aI3
aI5
aI4
asI125
(lp888
I2
asa(dp889
I142
(lp890
I2
aI3
aI5
aI4
asI146
(lp891
I2
aI3
aI1
aI4
asI155
(lp892
I3
aI1
aI2
aI5
aI4
asI156
(lp893
I1
aI2
aI5
asI31
(lp894
I2
aI4
aI3
aI5
aI1
asI160
(lp895
I5
aI3
aI4
asI162
(lp896
I5
aI3
aI4
asI164
(lp897
I4
aI3
aI1
asI171
(lp898
I1
aI3
aI5
asI178
(lp899
I4
aI5
aI1
aI3
asI181
(lp900
I5
asI183
(lp901
I4
aI1
aI3
aI5
asI189
(lp902
I4
aI5
aI2
aI3
aI1
asI190
(lp903
I5
aI2
aI4
aI3
asI192
(lp904
I5
aI4
asI194
(lp905
I3
aI4
aI1
aI2
asI101
(lp906
I5
aI4
aI2
aI1
asI103
(lp907
I2
aI1
aI5
aI3
asI107
(lp908
I2
asI112
(lp909
I2
aI5
asI115
(lp910
I1
asI118
(lp911
I1
aI4
aI5
asI122
(lp912
I1
aI5
aI4
aI3
aI2
asI123
(lp913
I1
asI126
(lp914
I4
aI3
aI2
aI1
asa(dp915
I129
(lp916
I4
asI6
(lp917
I4
aI1
aI5
asI153
(lp918
I5
aI1
aI4
asI155
(lp919
I4
asI158
(lp920
I1
aI2
aI5
aI4
aI3
asI159
(lp921
I2
asI163
(lp922
I1
aI5
aI2
aI4
aI3
asI36
(lp923
I4
aI2
aI1
aI3
aI5
asI166
(lp924
I4
aI1
asI170
(lp925
I5
aI3
aI2
aI4
asI172
(lp926
I2
aI5
aI3
asI46
(lp927
I2
asI175
(lp928
I5
aI3
aI4
aI1
aI2
asI176
(lp929
I3
aI4
aI1
aI2
aI5
asI177
(lp930
I4
aI1
aI2
asI30
(lp931
I1
aI2
aI5
aI4
aI3
asI54
(lp932
I4
aI3
aI2
aI1
asI183
(lp933
I5
aI3
aI2
aI1
asI185
(lp934
I2
aI3
aI1
asI190
(lp935
I2
aI4
asI194
(lp936
I3
aI1
aI2
asI67
(lp937
I2
aI1
asI76
(lp938
I2
aI4
aI1
aI3
asI164
(lp939
I5
asI98
(lp940
I2
aI5
asI102
(lp941
I2
aI4
aI3
aI1
asI124
(lp942
I2
asa(dp943
I134
(lp944
I2
aI3
aI1
asI139
(lp945
I1
asI144
(lp946
I3
aI1
aI4
asI152
(lp947
I2
aI3
asI157
(lp948
I4
aI1
aI5
asI161
(lp949
I1
aI4
asI38
(lp950
I4
aI5
aI3
aI1
asI167
(lp951
I2
aI1
aI3
asI174
(lp952
I1
aI5
aI3
aI2
aI4
asI175
(lp953
I5
asI177
(lp954
I3
asI187
(lp955
I1
aI3
asI62
(lp956
I4
asI192
(lp957
I1
aI3
aI5
aI4
aI2
asI193
(lp958
I3
asI196
(lp959
I4
asI87
(lp960
I1
aI5
asI90
(lp961
I2
aI3
aI5
aI1
aI4
asI100
(lp962
I3
aI1
asI166
(lp963
I3
aI2
aI1
aI4
aI5
asI106
(lp964
I5
aI2
aI1
asI108
(lp965
I5
aI1
asI110
(lp966
I5
asI112
(lp967
I4
aI3
aI1
aI2
asI121
(lp968
I4
aI2
aI1
aI5
aI3
asI122
(lp969
I2
aI4
aI1
aI5
asa(dp970
I128
(lp971
I4
aI2
asI136
(lp972
I2
aI4
aI3
aI5
aI1
asI9
(lp973
I5
aI4
aI2
aI3
asI141
(lp974
I4
aI2
aI3
aI1
asI155
(lp975
I3
aI1
aI2
asI28
(lp976
I3
aI2
aI5
aI4
asI37
(lp977
I3
aI5
aI2
asI166
(lp978
I3
aI5
aI4
aI1
asI171
(lp979
I1
aI2
aI4
aI3
asI182
(lp980
I2
aI3
aI1
aI5
aI4
asI137
(lp981
I4
aI3
asI189
(lp982
I5
asI191
(lp983
I3
asI196
(lp984
I5
aI2
aI4
aI3
aI1
asI197
(lp985
I2
aI4
aI3
aI1
aI5
asI198
(lp986
I2
aI4
asI183
(lp987
I3
aI1
asI95
(lp988
I2
aI1
aI3
asI101
(lp989
I3
aI5
asI104
(lp990
I4
aI3
aI1
asI111
(lp991
I1
aI4
aI5
aI3
asI115
(lp992
I3
asI119
(lp993
I5
aI2
asI121
(lp994
I1
aI5
asI124
(lp995
I5
aI1
aI2
aI4
asI126
(lp996
I5
asa(dp997
I138
(lp998
I5
aI4
aI1
asI23
(lp999
I5
asI140
(lp1000
I5
aI1
aI3
aI2
asI142
(lp1001
I3
asI146
(lp1002
I2
aI3
aI5
aI1
asI150
(lp1003
I1
aI3
aI2
aI4
aI5
asI151
(lp1004
I3
asI172
(lp1005
I1
aI4
aI3
asI178
(lp1006
I3
aI2
asI54
(lp1007
I1
aI2
aI5
aI4
aI3
asI189
(lp1008
I4
aI5
aI3
asI192
(lp1009
I4
aI5
aI2
asI195
(lp1010
I2
aI1
aI4
aI3
asI182
(lp1011
I2
asI80
(lp1012
I2
aI1
aI3
asI97
(lp1013
I4
aI3
aI1
asI109
(lp1014
I5
aI4
aI3
aI1
aI2
asI110
(lp1015
I5
aI4
aI3
aI1
aI2
asI111
(lp1016
I4
aI5
aI3
aI1
aI2
asI112
(lp1017
I5
aI3
aI1
aI2
asI114
(lp1018
I1
aI2
aI4
asI127
(lp1019
I2
aI3
aI1
aI5
asa(dp1020
I192
(lp1021
I4
asI66
(lp1022
I3
asI131
(lp1023
I3
aI1
asI179
(lp1024
I4
aI1
aI5
aI2
asI135
(lp1025
I3
aI2
aI5
asI104
(lp1026
I5
aI4
aI3
asI172
(lp1027
I4
aI3
asI106
(lp1028
I4
aI3
aI2
aI5
asI140
(lp1029
I1
asI144
(lp1030
I5
aI4
aI3
asI146
(lp1031
I4
aI3
aI2
aI5
asI115
(lp1032
I5
asI20
(lp1033
I5
aI2
aI3
aI1
asI117
(lp1034
I4
asI54
(lp1035
I2
asI151
(lp1036
I2
aI1
asI184
(lp1037
I5
aI2
aI1
aI4
aI3
asI185
(lp1038
I5
aI2
aI1
aI4
aI3
asI186
(lp1039
I2
aI5
aI1
aI4
aI3
asI187
(lp1040
I5
aI1
asI189
(lp1041
I1
asa(dp1042
I96
(lp1043
I1
aI4
aI3
asI162
(lp1044
I5
aI2
aI3
asI35
(lp1045
I3
aI2
asI164
(lp1046
I2
aI3
aI1
aI4
aI5
asI133
(lp1047
I1
aI2
aI3
aI5
asI177
(lp1048
I4
aI5
aI2
aI3
asI107
(lp1049
I3
asI140
(lp1050
I3
aI1
aI5
aI4
asI77
(lp1051
I4
aI5
aI1
asI14
(lp1052
I1
aI3
aI4
aI5
aI2
asI144
(lp1053
I1
aI3
aI4
asI81
(lp1054
I2
asI131
(lp1055
I5
aI4
asI180
(lp1056
I2
aI5
aI3
aI1
asI22
(lp1057
I5
aI2
aI3
asI119
(lp1058
I1
asI185
(lp1059
I2
asI151
(lp1060
I1
asI183
(lp1061
I5
aI1
aI2
asI199
(lp1062
I3
asI165
(lp1063
I3
aI1
asa(dp1064
I129
(lp1065
I2
aI1
asI137
(lp1066
I5
aI1
aI3
aI2
aI4
asI138
(lp1067
I5
aI1
aI3
aI2
aI4
asI139
(lp1068
I5
aI1
aI3
aI2
aI4
asI12
(lp1069
I1
asI141
(lp1070
I5
asI143
(lp1071
I1
aI5
aI3
asI146
(lp1072
I2
aI5
aI4
asI150
(lp1073
I2
aI4
aI1
aI3
aI5
asI151
(lp1074
I4
aI1
asI164
(lp1075
I3
aI2
aI5
asI172
(lp1076
I2
aI1
asI181
(lp1077
I5
aI2
asI183
(lp1078
I3
aI2
asI68
(lp1079
I2
asI198
(lp1080
I1
aI5
asI140
(lp1081
I1
aI5
aI3
aI2
aI4
asI15
(lp1082
I4
aI5
asI106
(lp1083
I5
asI108
(lp1084
I4
aI3
asI18
(lp1085
I4
aI2
aI5
aI3
asI117
(lp1086
I1
aI3
asI125
(lp1087
I2
asa(dp1088
I130
(lp1089
I3
aI5
aI2
aI4
asI133
(lp1090
I3
aI2
asI153
(lp1091
I2
aI4
aI5
aI1
aI3
asI154
(lp1092
I4
aI5
asI157
(lp1093
I5
asI159
(lp1094
I5
aI4
aI2
aI3
aI1
asI160
(lp1095
I4
aI2
aI3
aI1
aI5
asI161
(lp1096
I2
aI3
aI1
aI5
asI169
(lp1097
I1
asI178
(lp1098
I2
asI184
(lp1099
I1
aI4
aI3
aI5
aI2
asI185
(lp1100
I4
asI58
(lp1101
I5
aI3
aI1
asI192
(lp1102
I3
aI1
asI196
(lp1103
I3
aI5
aI2
aI4
aI1
asI197
(lp1104
I5
aI2
aI4
asI199
(lp1105
I4
aI5
asI86
(lp1106
I5
aI3
asI108
(lp1107
I2
aI5
aI1
aI3
asI113
(lp1108
I1
aI3
aI2
aI4
aI5
asI114
(lp1109
I3
asI122
(lp1110
I1
aI4
asI127
(lp1111
I3
aI5
asa(dp1112
I133
(lp1113
I5
aI1
aI2
aI3
asI135
(lp1114
I2
asI138
(lp1115
I1
aI2
aI3
asI144
(lp1116
I3
aI5
aI4
aI2
aI1
asI145
(lp1117
I5
aI3
aI4
asI147
(lp1118
I4
aI3
aI5
asI152
(lp1119
I2
aI3
aI4
asI161
(lp1120
I1
asI165
(lp1121
I3
aI1
asI42
(lp1122
I5
asI199
(lp1123
I4
asI172
(lp1124
I4
asI175
(lp1125
I3
aI4
asI186
(lp1126
I5
asI188
(lp1127
I5
aI3
aI2
asI190
(lp1128
I3
aI2
aI5
aI4
aI1
asI191
(lp1129
I2
aI5
aI4
asI194
(lp1130
I1
aI2
aI5
aI4
asI71
(lp1131
I1
aI2
aI5
aI4
asI102
(lp1132
I2
aI3
aI4
aI5
aI1
asI103
(lp1133
I3
aI4
asI107
(lp1134
I5
aI3
aI1
aI4
asI109
(lp1135
I3
aI1
aI4
asI116
(lp1136
I2
aI5
aI3
aI1
asI119
(lp1137
I3
aI1
aI4
asa(dp1138
I128
(lp1139
I3
aI1
aI4
aI2
asI162
(lp1140
I1
aI3
aI5
asI180
(lp1141
I5
aI2
aI4
aI3
asI167
(lp1142
I4
aI3
asI104
(lp1143
I5
asI106
(lp1144
I3
asI143
(lp1145
I1
aI2
asI48
(lp1146
I4
asI200
(lp1147
I4
aI2
asI114
(lp1148
I5
asI195
(lp1149
I2
aI1
aI5
aI4
asI116
(lp1150
I3
aI1
asI149
(lp1151
I3
aI1
aI4
aI2
asI182
(lp1152
I4
aI2
asI148
(lp1153
I4
aI3
aI1
aI2
aI5
asI26
(lp1154
I3
aI1
aI2
aI5
aI4
asI124
(lp1155
I1
asI189
(lp1156
I1
aI4
aI3
aI5
asa(dp1157
I130
(lp1158
I1
aI4
aI5
aI3
asI135
(lp1159
I1
aI3
aI5
aI4
asI139
(lp1160
I3
asI144
(lp1161
I2
aI5
aI4
aI3
asI147
(lp1162
I4
aI3
aI5
aI1
aI2
asI148
(lp1163
I4
aI3
aI5
aI1
asI153
(lp1164
I4
aI5
aI1
asI156
(lp1165
I2
asI165
(lp1166
I4
asI173
(lp1167
I4
aI1
aI2
asI47
(lp1168
I5
aI4
aI1
aI3
aI2
asI49
(lp1169
I5
aI4
aI1
aI3
aI2
asI182
(lp1170
I2
aI5
aI3
aI1
aI4
asI183
(lp1171
I5
aI3
asI185
(lp1172
I5
aI2
aI3
asI187
(lp1173
I3
aI5
asI190
(lp1174
I5
asI63
(lp1175
I1
aI2
aI3
asI192
(lp1176
I4
asI99
(lp1177
I5
aI2
aI1
asI101
(lp1178
I2
aI1
asI113
(lp1179
I1
aI3
aI5
asI118
(lp1180
I3
asI122
(lp1181
I3
aI1
aI2
aI4
asa(dp1182
I128
(lp1183
I3
aI2
asI133
(lp1184
I4
aI3
aI2
asI17
(lp1185
I2
aI3
aI5
aI4
aI1
asI151
(lp1186
I3
aI5
aI2
aI4
aI1
asI152
(lp1187
I5
aI2
aI4
asI154
(lp1188
I2
aI4
asI27
(lp1189
I5
aI2
aI3
aI4
asI160
(lp1190
I2
aI5
aI1
aI3
asI164
(lp1191
I2
asI37
(lp1192
I3
aI5
aI2
aI1
aI4
asI170
(lp1193
I2
aI3
asI186
(lp1194
I5
aI1
aI4
aI2
asI188
(lp1195
I4
asI192
(lp1196
I2
aI4
aI1
aI3
asI199
(lp1197
I2
aI3
aI4
aI1
asI73
(lp1198
I3
asI24
(lp1199
I5
aI4
aI2
aI3
asI98
(lp1200
I5
asI100
(lp1201
I5
asI102
(lp1202
I1
aI5
aI3
aI2
aI4
asI103
(lp1203
I5
asI105
(lp1204
I1
aI5
aI3
asI108
(lp1205
I2
aI5
aI1
asI111
(lp1206
I1
aI4
aI2
aI3
aI5
asI112
(lp1207
I1
asI122
(lp1208
I2
aI4
asa(dp1209
I128
(lp1210
I2
aI3
aI4
aI1
asI136
(lp1211
I2
asI143
(lp1212
I3
asI152
(lp1213
I4
aI5
aI3
asI25
(lp1214
I2
aI5
aI3
aI4
aI1
asI155
(lp1215
I4
aI1
aI3
asI162
(lp1216
I1
aI5
aI2
aI4
aI3
asI163
(lp1217
I5
asI165
(lp1218
I4
aI5
asI38
(lp1219
I1
asI168
(lp1220
I2
aI1
aI5
aI3
asI173
(lp1221
I2
aI4
aI3
asI182
(lp1222
I5
aI4
aI3
aI1
aI2
asI183
(lp1223
I4
aI3
aI1
aI2
aI5
asI184
(lp1224
I3
aI1
aI2
aI5
asI62
(lp1225
I4
aI2
aI3
aI5
aI1
asI63
(lp1226
I2
aI3
aI5
aI1
asI103
(lp1227
I4
aI2
aI5
aI3
asI107
(lp1228
I3
aI2
aI4
aI5
asI191
(lp1229
I4
aI2
asI115
(lp1230
I3
aI1
aI2
aI5
aI4
asI116
(lp1231
I3
aI1
aI2
asI123
(lp1232
I1
aI3
asa(dp1233
I131
(lp1234
I5
aI1
aI2
aI4
aI3
asI132
(lp1235
I5
aI1
aI2
aI4
aI3
asI133
(lp1236
I1
aI2
aI5
aI4
aI3
asI6
(lp1237
I4
aI1
aI3
asI139
(lp1238
I2
asI146
(lp1239
I1
aI5
asI149
(lp1240
I4
aI5
asI152
(lp1241
I2
aI3
aI1
asI158
(lp1242
I1
aI2
asI162
(lp1243
I3
aI4
aI1
asI134
(lp1244
I1
asI168
(lp1245
I4
aI1
aI3
aI5
asI179
(lp1246
I2
aI4
aI3
aI5
asI52
(lp1247
I2
aI3
asI184
(lp1248
I2
asI59
(lp1249
I3
aI5
asI189
(lp1250
I3
aI1
aI4
aI2
asI62
(lp1251
I3
aI2
aI1
asI197
(lp1252
I2
aI1
aI4
aI3
aI5
asI198
(lp1253
I1
aI2
asI86
(lp1254
I1
aI4
asI187
(lp1255
I5
aI4
aI3
aI1
asI103
(lp1256
I5
aI1
asI105
(lp1257
I3
asI108
(lp1258
I5
aI3
aI2
aI4
asI110
(lp1259
I2
aI5
aI4
asI113
(lp1260
I4
aI3
aI2
aI5
asI120
(lp1261
I5
aI4
aI3
asI122
(lp1262
I3
aI4
aI5
aI1
asI127
(lp1263
I2
asa(dp1264
I131
(lp1265
I1
aI5
aI2
asI4
(lp1266
I5
aI3
aI1
aI4
aI2
asI5
(lp1267
I5
aI3
aI1
aI4
aI2
asI137
(lp1268
I1
aI2
asI143
(lp1269
I1
aI4
aI3
aI2
aI5
asI144
(lp1270
I1
asI18
(lp1271
I3
asI155
(lp1272
I1
aI5
aI2
aI4
aI3
asI156
(lp1273
I1
asI159
(lp1274
I4
aI3
asI163
(lp1275
I1
aI4
aI5
aI3
aI2
asI164
(lp1276
I1
asI168
(lp1277
I5
aI3
aI1
aI4
asI170
(lp1278
I1
aI4
aI3
asI43
(lp1279
I4
aI1
aI2
aI3
asI177
(lp1280
I2
aI3
aI4
aI5
aI1
asI178
(lp1281
I3
aI4
asI185
(lp1282
I3
aI1
aI5
aI4
aI2
asI186
(lp1283
I1
aI3
aI5
asI195
(lp1284
I3
aI4
aI1
asI107
(lp1285
I4
aI2
aI5
aI3
asI112
(lp1286
I5
aI2
asI114
(lp1287
I3
aI5
asI117
(lp1288
I3
asI124
(lp1289
I5
aI3
aI1
asI126
(lp1290
I3
aI1
aI5
asa(dp1291
I5
(lp1292
I5
aI2
aI1
asI134
(lp1293
I3
aI4
asI7
(lp1294
I1
aI3
asI139
(lp1295
I3
aI4
aI1
asI146
(lp1296
I5
aI3
asI148
(lp1297
I3
aI5
aI4
asI151
(lp1298
I4
aI5
aI2
asI154
(lp1299
I4
aI5
aI2
aI1
asI158
(lp1300
I2
aI1
aI4
aI3
asI31
(lp1301
I2
aI5
aI4
asI34
(lp1302
I1
aI2
aI3
aI5
asI164
(lp1303
I5
aI3
aI1
aI2
aI4
asI165
(lp1304
I5
aI3
aI1
aI2
aI4
asI166
(lp1305
I3
aI1
aI2
aI4
aI5
asI167
(lp1306
I1
aI2
aI3
asI176
(lp1307
I3
asI180
(lp1308
I1
asI190
(lp1309
I2
aI3
aI5
aI1
aI4
asI191
(lp1310
I3
aI2
asI197
(lp1311
I1
aI3
asI80
(lp1312
I1
aI5
asI98
(lp1313
I3
asI106
(lp1314
I1
asI111
(lp1315
I4
asI116
(lp1316
I1
aI3
aI4
aI5
aI2
asI117
(lp1317
I3
asI123
(lp1318
I5
aI3
aI2
asI125
(lp1319
I2
aI1
aI4
asa(dp1320
I129
(lp1321
I5
aI2
aI4
aI3
aI1
asI130
(lp1322
I5
aI2
aI4
aI3
aI1
asI131
(lp1323
I2
aI4
aI3
aI1
aI5
asI132
(lp1324
I2
aI4
asI142
(lp1325
I2
asI16
(lp1326
I3
aI5
aI2
aI4
asI150
(lp1327
I3
aI4
aI2
asI162
(lp1328
I2
aI1
aI5
aI4
aI3
asI163
(lp1329
I1
aI5
asI166
(lp1330
I3
aI4
aI5
aI2
asI173
(lp1331
I4
aI2
aI5
asI51
(lp1332
I3
aI5
aI1
aI4
asI180
(lp1333
I3
aI4
aI2
asI189
(lp1334
I2
aI4
asI80
(lp1335
I1
aI2
asI101
(lp1336
I1
aI2
aI4
aI3
aI5
asI102
(lp1337
I2
asI109
(lp1338
I2
aI5
asI112
(lp1339
I2
asI121
(lp1340
I5
aI3
asI123
(lp1341
I5
aI1
aI4
asI125
(lp1342
I1
aI4
aI5
aI2
aI3
asI126
(lp1343
I4
asa(dp1344
I130
(lp1345
I4
aI1
aI2
aI3
aI5
asI99
(lp1346
I2
aI4
asI165
(lp1347
I3
aI2
aI1
aI5
aI4
asI166
(lp1348
I2
aI1
aI3
asI194
(lp1349
I2
asI188
(lp1350
I1
asI139
(lp1351
I2
aI1
aI5
aI4
asI172
(lp1352
I1
aI2
aI4
aI5
asI77
(lp1353
I2
aI4
aI1
aI5
asI144
(lp1354
I4
aI1
aI3
aI2
asI131
(lp1355
I4
aI1
aI2
aI3
asI180
(lp1356
I2
asI22
(lp1357
I1
aI5
aI3
asI88
(lp1358
I4
aI3
asI121
(lp1359
I3
aI4
aI2
aI5
asI179
(lp1360
I1
aI2
aI4
aI3
aI5
asI156
(lp1361
I4
aI2
aI1
aI3
aI5
asI157
(lp1362
I2
aI1
aI4
aI3
asa(dp1363
I2
(lp1364
I1
aI3
aI4
asI132
(lp1365
I1
aI3
aI5
aI4
asI137
(lp1366
I1
aI2
aI3
aI4
asI144
(lp1367
I3
aI4
asI18
(lp1368
I3
aI1
aI4
aI5
aI2
asI19
(lp1369
I1
aI4
aI5
asI151
(lp1370
I3
aI2
aI4
aI1
asI164
(lp1371
I3
aI4
aI1
aI2
asI37
(lp1372
I4
aI3
asI179
(lp1373
I5
aI1
aI2
aI4
asI181
(lp1374
I5
asI183
(lp1375
I1
aI4
asI57
(lp1376
I4
asI196
(lp1377
I3
aI4
aI1
aI2
asI76
(lp1378
I4
aI2
asI86
(lp1379
I2
aI3
aI5
aI4
aI1
asI93
(lp1380
I1
aI5
aI4
aI3
asI100
(lp1381
I2
aI4
aI1
asI108
(lp1382
I1
aI3
aI5
aI2
aI4
asI109
(lp1383
I1
asI115
(lp1384
I4
aI5
asI118
(lp1385
I1
aI3
aI5
aI2
asI122
(lp1386
I1
asa(dp1387
I133
(lp1388
I5
aI4
aI3
aI1
asI135
(lp1389
I4
aI3
aI1
aI5
aI2
asI136
(lp1390
I3
aI1
aI5
aI2
asI143
(lp1391
I2
aI1
asI148
(lp1392
I5
aI2
aI1
aI4
aI3
asI149
(lp1393
I2
aI1
aI4
aI3
aI5
asI150
(lp1394
I1
aI4
asI156
(lp1395
I2
aI1
asI161
(lp1396
I1
aI5
aI2
aI3
aI4
asI162
(lp1397
I1
asI165
(lp1398
I2
aI3
asI173
(lp1399
I3
aI1
asI177
(lp1400
I5
aI4
asI179
(lp1401
I1
aI3
aI2
aI4
asI193
(lp1402
I1
asI198
(lp1403
I5
aI4
aI3
aI1
asI200
(lp1404
I4
aI3
aI1
aI5
asI15
(lp1405
I3
aI2
aI4
aI1
asI104
(lp1406
I4
asI109
(lp1407
I5
aI2
aI3
asI111
(lp1408
I3
aI4
asI121
(lp1409
I2
asI125
(lp1410
I4
asa(dp1411
I132
(lp1412
I2
aI5
aI4
asI135
(lp1413
I5
aI4
aI2
aI3
asI137
(lp1414
I4
aI5
aI2
aI3
aI1
asI138
(lp1415
I5
aI2
aI3
aI4
asI140
(lp1416
I3
aI4
asI147
(lp1417
I2
aI3
asI151
(lp1418
I2
aI5
aI4
aI1
aI3
asI152
(lp1419
I5
aI4
asI154
(lp1420
I2
aI4
aI5
aI1
asI158
(lp1421
I4
aI1
aI3
aI2
aI5
asI159
(lp1422
I1
aI3
aI4
aI2
asI200
(lp1423
I3
aI1
aI4
asI56
(lp1424
I1
asI185
(lp1425
I4
aI5
aI1
aI3
asI189
(lp1426
I5
aI4
aI1
aI3
aI2
asI190
(lp1427
I4
aI1
aI3
aI5
aI2
asI191
(lp1428
I1
aI4
aI3
aI5
asI197
(lp1429
I4
asI72
(lp1430
I4
asI78
(lp1431
I2
asI184
(lp1432
I4
aI5
aI1
aI3
aI2
asI92
(lp1433
I1
aI4
aI2
aI3
asI116
(lp1434
I5
asI118
(lp1435
I5
aI4
aI2
asI120
(lp1436
I2
aI4
aI5
aI3
asI124
(lp1437
I3
aI1
aI2
asa(dp1438
I131
(lp1439
I2
asI5
(lp1440
I2
aI1
asI134
(lp1441
I1
aI4
aI3
aI2
aI5
asI135
(lp1442
I4
asI17
(lp1443
I5
aI4
aI2
aI1
aI3
asI18
(lp1444
I4
aI2
aI5
aI1
aI3
asI150
(lp1445
I2
aI3
aI4
aI5
aI1
asI151
(lp1446
I3
aI4
asI155
(lp1447
I3
aI2
aI4
asI30
(lp1448
I4
aI5
aI1
asI164
(lp1449
I5
aI4
asI166
(lp1450
I4
aI2
aI3
aI1
aI5
asI167
(lp1451
I2
aI3
aI4
aI1
asI42
(lp1452
I2
aI4
aI3
aI5
asI58
(lp1453
I5
aI4
aI3
aI1
asI60
(lp1454
I3
aI1
aI5
aI2
asI191
(lp1455
I2
aI4
aI1
aI5
aI3
asI192
(lp1456
I4
aI1
asI196
(lp1457
I1
aI4
aI3
aI5
asI186
(lp1458
I3
aI4
asI101
(lp1459
I5
aI3
asI103
(lp1460
I3
aI5
aI4
asI106
(lp1461
I1
aI4
aI3
aI5
asI112
(lp1462
I5
asI114
(lp1463
I1
asI119
(lp1464
I1
aI5
asI123
(lp1465
I5
aI3
aI4
aI2
asI125
(lp1466
I4
aI2
aI5
asa(dp1467
I160
(lp1468
I2
aI5
aI4
aI1
asI51
(lp1469
I1
asI98
(lp1470
I3
asI163
(lp1471
I4
aI2
aI5
aI1
asI150
(lp1472
I3
aI2
asI167
(lp1473
I2
aI1
asI171
(lp1474
I1
asI139
(lp1475
I4
asI174
(lp1476
I3
aI2
aI1
aI4
asI144
(lp1477
I2
aI4
asI115
(lp1478
I1
aI4
aI2
asI149
(lp1479
I2
aI3
aI5
aI4
aI1
asI54
(lp1480
I3
aI2
asI183
(lp1481
I3
aI4
aI1
asI155
(lp1482
I3
aI2
aI4
asI124
(lp1483
I3
aI4
asI191
(lp1484
I4
aI3
aI1
asa(dp1485
I128
(lp1486
I3
aI2
aI1
asI3
(lp1487
I4
aI2
aI5
aI3
aI1
asI136
(lp1488
I5
aI2
aI4
asI138
(lp1489
I2
aI4
aI3
aI1
aI5
asI139
(lp1490
I4
aI3
asI147
(lp1491
I4
aI2
aI1
aI3
aI5
asI148
(lp1492
I2
aI4
aI1
aI3
asI26
(lp1493
I2
aI3
asI161
(lp1494
I5
aI1
aI4
aI2
aI3
asI162
(lp1495
I5
aI1
aI4
aI2
aI3
asI163
(lp1496
I1
aI4
aI5
aI2
aI3
asI164
(lp1497
I4
asI167
(lp1498
I4
aI5
asI170
(lp1499
I2
aI1
aI4
aI5
aI3
asI171
(lp1500
I1
aI4
asI176
(lp1501
I2
aI5
aI3
aI4
aI1
asI177
(lp1502
I5
aI3
asI179
(lp1503
I3
aI5
aI4
asI52
(lp1504
I5
asI182
(lp1505
I4
aI1
aI2
aI5
asI63
(lp1506
I4
aI1
asI192
(lp1507
I5
aI1
asI194
(lp1508
I5
aI1
aI3
aI4
aI2
asI195
(lp1509
I1
aI3
aI5
aI4
aI2
asI196
(lp1510
I3
asI69
(lp1511
I1
aI5
aI2
asI199
(lp1512
I3
aI5
aI2
aI1
asI72
(lp1513
I4
aI5
asI78
(lp1514
I3
aI5
aI1
asI86
(lp1515
I5
asI98
(lp1516
I3
aI1
aI5
asI103
(lp1517
I4
aI5
aI2
asI106
(lp1518
I2
aI4
aI1
aI5
aI3
asI107
(lp1519
I4
aI1
asI111
(lp1520
I5
aI4
aI3
asI113
(lp1521
I3
aI5
aI2
aI4
asI116
(lp1522
I4
aI2
asa(dp1523
I4
(lp1524
I3
asI143
(lp1525
I1
aI4
aI3
aI2
aI5
asI144
(lp1526
I4
asI22
(lp1527
I5
aI2
aI3
aI4
aI1
asI154
(lp1528
I3
aI1
aI5
asI26
(lp1529
I3
aI4
asI158
(lp1530
I5
asI31
(lp1531
I3
asI160
(lp1532
I4
aI5
aI2
asI163
(lp1533
I3
aI5
asI38
(lp1534
I5
aI1
aI4
asI169
(lp1535
I3
asI172
(lp1536
I2
aI4
aI3
aI1
aI5
asI173
(lp1537
I4
aI3
asI179
(lp1538
I2
aI3
aI1
aI5
asI186
(lp1539
I3
aI4
aI2
asI195
(lp1540
I2
aI3
aI1
aI4
aI5
asI196
(lp1541
I3
aI1
asI83
(lp1542
I2
asI90
(lp1543
I1
aI3
aI2
asI166
(lp1544
I2
asI113
(lp1545
I2
asI117
(lp1546
I3
aI1
aI5
aI2
aI4
asI118
(lp1547
I3
aI1
aI5
asI122
(lp1548
I1
aI2
aI3
asa(dp1549
I4
(lp1550
I4
aI2
aI1
asI135
(lp1551
I4
aI1
aI3
aI2
asI145
(lp1552
I3
asI148
(lp1553
I3
aI2
asI153
(lp1554
I3
aI1
aI5
aI2
asI29
(lp1555
I4
aI1
aI3
aI2
aI5
asI158
(lp1556
I3
aI2
aI1
aI4
aI5
asI159
(lp1557
I2
aI3
aI1
asI177
(lp1558
I3
aI1
aI2
aI4
asI187
(lp1559
I3
asI61
(lp1560
I4
asI190
(lp1561
I2
aI3
asI197
(lp1562
I5
aI4
aI1
aI3
asI199
(lp1563
I4
aI1
aI3
aI5
aI2
asI200
(lp1564
I1
aI3
aI5
aI2
asI78
(lp1565
I2
asI87
(lp1566
I3
aI4
asI103
(lp1567
I1
aI5
aI2
asI106
(lp1568
I1
aI3
asI117
(lp1569
I3
asI121
(lp1570
I4
asI124
(lp1571
I1
aI5
asI127
(lp1572
I2
asa(dp1573
I128
(lp1574
I1
aI4
aI5
aI2
asI135
(lp1575
I4
asI138
(lp1576
I5
aI4
aI1
aI2
asI140
(lp1577
I5
aI4
aI1
aI2
aI3
asI141
(lp1578
I4
aI1
aI2
aI5
aI3
asI142
(lp1579
I1
aI2
aI4
aI5
asI155
(lp1580
I5
aI2
aI1
asI157
(lp1581
I5
aI1
asI159
(lp1582
I1
asI162
(lp1583
I3
aI5
aI1
asI165
(lp1584
I1
aI2
aI5
asI171
(lp1585
I1
aI5
aI2
asI175
(lp1586
I3
aI5
asI178
(lp1587
I3
aI5
aI4
aI2
aI1
asI179
(lp1588
I5
aI3
aI4
asI181
(lp1589
I4
aI3
aI2
asI56
(lp1590
I1
aI3
aI4
aI5
aI2
asI190
(lp1591
I4
aI5
aI1
aI2
aI3
asI191
(lp1592
I5
aI1
aI4
aI2
asI193
(lp1593
I1
asI199
(lp1594
I1
aI5
aI3
aI2
asI100
(lp1595
I1
aI3
asI108
(lp1596
I5
aI1
aI3
asI110
(lp1597
I1
asI113
(lp1598
I5
asI115
(lp1599
I3
aI1
aI2
asI121
(lp1600
I3
aI2
aI5
asI126
(lp1601
I5
asa(dp1602
I129
(lp1603
I1
aI4
asI4
(lp1604
I1
aI5
asI135
(lp1605
I2
asI139
(lp1606
I2
aI3
aI5
aI4
asI144
(lp1607
I4
aI1
aI3
asI153
(lp1608
I5
aI3
asI155
(lp1609
I2
aI1
aI4
asI162
(lp1610
I2
aI5
aI4
aI1
asI165
(lp1611
I5
aI1
aI4
aI3
asI167
(lp1612
I4
asI173
(lp1613
I5
aI3
aI1
aI2
asI175
(lp1614
I1
aI2
aI4
asI184
(lp1615
I1
aI3
aI2
aI4
asI60
(lp1616
I5
asI65
(lp1617
I3
aI1
aI4
asI72
(lp1618
I5
aI3
aI2
aI1
aI4
asI104
(lp1619
I5
aI2
aI1
aI3
asI106
(lp1620
I1
aI2
asI113
(lp1621
I3
aI5
aI1
aI4
aI2
asI114
(lp1622
I5
aI3
aI1
asI116
(lp1623
I1
aI5
aI4
asI119
(lp1624
I3
aI4
aI1
aI5
asI127
(lp1625
I5
aI2
aI1
aI4
asa(dp1626
I128
(lp1627
I3
aI4
aI1
aI5
asI181
(lp1628
I3
asI163
(lp1629
I3
aI4
aI1
aI2
asI197
(lp1630
I4
asI134
(lp1631
I5
aI2
asI39
(lp1632
I5
aI3
aI1
aI2
asI104
(lp1633
I3
asI145
(lp1634
I4
aI1
aI3
aI2
asI171
(lp1635
I4
aI3
aI2
aI1
aI5
asI172
(lp1636
I4
aI3
aI2
aI1
asI111
(lp1637
I1
aI5
aI2
aI3
asI144
(lp1638
I4
aI1
aI3
aI2
aI5
asI136
(lp1639
I3
aI2
asI50
(lp1640
I1
aI5
aI4
aI2
aI3
asI115
(lp1641
I3
aI4
asI53
(lp1642
I4
aI5
aI1
aI2
asI152
(lp1643
I5
aI3
asI154
(lp1644
I3
aI5
aI1
asI125
(lp1645
I3
aI5
asI159
(lp1646
I1
asa(dp1647
I130
(lp1648
I5
aI3
asI132
(lp1649
I4
aI5
aI2
asI135
(lp1650
I5
aI4
asI8
(lp1651
I3
asI137
(lp1652
I4
aI1
aI2
aI5
asI148
(lp1653
I5
aI2
asI150
(lp1654
I3
aI2
asI155
(lp1655
I5
aI1
aI2
asI157
(lp1656
I1
asI160
(lp1657
I5
aI2
asI162
(lp1658
I2
aI1
asI198
(lp1659
I3
aI4
aI5
asI169
(lp1660
I4
asI43
(lp1661
I2
aI5
aI3
aI4
asI172
(lp1662
I5
aI1
aI4
aI3
asI174
(lp1663
I1
asI184
(lp1664
I2
asI188
(lp1665
I1
aI2
aI4
aI5
asI65
(lp1666
I3
aI1
aI4
aI5
aI2
asI195
(lp1667
I2
aI5
aI3
aI4
aI1
asI196
(lp1668
I5
aI3
asI70
(lp1669
I1
aI3
aI2
aI5
asI79
(lp1670
I2
aI5
aI3
aI4
aI1
asI94
(lp1671
I2
aI3
aI4
aI1
aI5
asI106
(lp1672
I1
aI2
aI5
aI3
asI111
(lp1673
I3
aI5
asI114
(lp1674
I1
asI123
(lp1675
I5
asI125
(lp1676
I4
asa(dp1677
I136
(lp1678
I4
aI3
aI5
aI1
aI2
asI137
(lp1679
I4
aI3
aI5
aI1
asI151
(lp1680
I5
asI142
(lp1681
I4
aI5
aI1
asI145
(lp1682
I1
aI5
aI3
aI2
aI4
asI146
(lp1683
I5
asI148
(lp1684
I3
asI23
(lp1685
I4
aI5
aI3
asI153
(lp1686
I1
asI162
(lp1687
I5
aI3
asI164
(lp1688
I3
aI5
aI2
aI4
aI1
asI165
(lp1689
I5
aI2
aI4
asI167
(lp1690
I2
aI4
asI171
(lp1691
I5
aI3
aI2
aI4
asI173
(lp1692
I2
aI4
aI1
asI57
(lp1693
I1
aI2
asI186
(lp1694
I4
asI191
(lp1695
I5
aI2
aI4
aI3
asI193
(lp1696
I5
aI4
asI195
(lp1697
I2
aI3
aI1
aI5
asI81
(lp1698
I5
aI2
aI4
aI3
aI1
asI98
(lp1699
I2
asI101
(lp1700
I3
aI1
aI2
aI4
asI120
(lp1701
I5
aI2
aI1
aI4
aI3
asI121
(lp1702
I2
aI1
aI4
aI5
aI3
asI122
(lp1703
I1
aI4
asI126
(lp1704
I4
aI1
aI2
aI3
asa(dp1705
I134
(lp1706
I5
aI1
asI7
(lp1707
I3
aI5
aI1
aI2
asI136
(lp1708
I3
asI141
(lp1709
I5
aI3
asI143
(lp1710
I2
aI1
aI5
asI17
(lp1711
I5
aI2
aI4
asI152
(lp1712
I1
aI5
aI3
aI4
asI156
(lp1713
I3
asI40
(lp1714
I1
aI5
aI4
asI172
(lp1715
I2
aI5
aI3
aI1
aI4
asI173
(lp1716
I2
aI5
asI176
(lp1717
I5
aI3
aI1
aI4
aI2
asI177
(lp1718
I5
aI3
aI1
aI4
aI2
asI178
(lp1719
I5
aI3
aI1
aI4
aI2
asI179
(lp1720
I3
aI1
aI4
aI5
aI2
asI180
(lp1721
I1
aI4
aI3
asI57
(lp1722
I2
aI3
aI5
asI186
(lp1723
I4
aI3
aI5
aI2
asI63
(lp1724
I5
aI3
aI2
aI4
aI1
asI194
(lp1725
I2
aI1
asI76
(lp1726
I1
aI5
asI185
(lp1727
I4
aI3
aI5
aI2
aI1
asI100
(lp1728
I3
aI4
aI2
asI108
(lp1729
I4
aI2
asI118
(lp1730
I5
aI3
aI4
aI2
asI120
(lp1731
I4
aI3
aI5
asI191
(lp1732
I1
aI5
asI125
(lp1733
I4
aI2
aI1
aI5
aI3
asI126
(lp1734
I4
aI2
aI1
aI5
asa(dp1735
I193
(lp1736
I1
aI2
asI129
(lp1737
I4
asI163
(lp1738
I4
aI2
aI3
aI5
aI1
asI164
(lp1739
I2
aI4
aI3
aI5
asI197
(lp1740
I3
aI4
aI5
aI1
asI134
(lp1741
I2
aI4
aI1
aI3
asI161
(lp1742
I5
asI105
(lp1743
I1
aI3
aI4
aI5
aI2
asI106
(lp1744
I3
asI111
(lp1745
I3
asI80
(lp1746
I2
asI177
(lp1747
I2
aI3
aI4
aI1
asI144
(lp1748
I2
aI1
aI3
aI4
asI85
(lp1749
I1
aI3
aI2
asI152
(lp1750
I3
aI4
aI5
aI2
asI121
(lp1751
I1
aI4
aI3
aI2
aI5
asI122
(lp1752
I4
asI156
(lp1753
I4
aI2
asI170
(lp1754
I3
aI1
asI62
(lp1755
I3
aI2
aI1
asa(dp1756
I132
(lp1757
I2
aI5
aI1
aI4
aI3
asI133
(lp1758
I5
aI1
asI135
(lp1759
I5
asI137
(lp1760
I5
aI2
aI4
aI1
aI3
asI138
(lp1761
I2
aI4
aI5
aI1
aI3
asI139
(lp1762
I4
aI2
asI13
(lp1763
I3
aI2
aI4
aI5
asI143
(lp1764
I3
asI147
(lp1765
I5
aI3
asI149
(lp1766
I5
aI3
aI1
aI2
aI4
asI150
(lp1767
I3
aI5
aI1
aI2
aI4
asI151
(lp1768
I5
aI3
aI1
asI153
(lp1769
I3
aI1
aI2
asI165
(lp1770
I5
asI167
(lp1771
I5
aI1
aI4
asI169
(lp1772
I4
asI173
(lp1773
I1
aI5
aI3
asI176
(lp1774
I3
aI2
aI4
asI50
(lp1775
I3
aI5
aI2
aI4
asI101
(lp1776
I2
aI3
aI4
asI109
(lp1777
I3
aI1
aI4
aI2
asI127
(lp1778
I4
asa(dp1779
I128
(lp1780
I5
aI1
aI3
aI4
aI2
asI129
(lp1781
I1
aI3
aI4
aI5
aI2
asI2
(lp1782
I5
asI140
(lp1783
I1
aI4
aI3
aI5
aI2
asI130
(lp1784
I1
asI150
(lp1785
I1
aI5
aI4
aI2
aI3
asI151
(lp1786
I5
asI153
(lp1787
I2
aI5
aI4
aI1
asI156
(lp1788
I2
aI5
aI4
aI1
aI3
asI157
(lp1789
I5
aI4
asI159
(lp1790
I4
aI1
aI5
aI2
asI37
(lp1791
I3
aI4
asI166
(lp1792
I4
aI5
asI169
(lp1793
I4
aI1
aI3
aI5
asI181
(lp1794
I5
aI1
aI3
aI4
aI2
asI182
(lp1795
I1
aI5
aI3
aI4
aI2
asI183
(lp1796
I5
asI185
(lp1797
I4
aI5
aI2
asI188
(lp1798
I5
aI1
asI190
(lp1799
I5
asI192
(lp1800
I4
aI2
aI3
aI5
aI1
asI193
(lp1801
I4
aI2
aI3
aI5
asI69
(lp1802
I2
aI5
aI4
aI1
asI198
(lp1803
I2
aI1
aI5
aI3
asI141
(lp1804
I4
asI100
(lp1805
I5
aI3
aI4
aI1
aI2
asI101
(lp1806
I3
aI5
aI4
aI1
aI2
asI102
(lp1807
I5
aI4
aI1
asI104
(lp1808
I1
aI5
aI2
aI4
asI107
(lp1809
I1
asI115
(lp1810
I4
aI3
aI5
aI2
asI120
(lp1811
I4
aI2
asI125
(lp1812
I4
aI5
aI1
aI3
asa(dp1813
I143
(lp1814
I5
aI4
aI1
aI2
asI145
(lp1815
I1
aI5
aI2
aI4
asI150
(lp1816
I1
aI2
asI155
(lp1817
I2
aI1
aI4
asI160
(lp1818
I2
aI3
aI5
asI35
(lp1819
I4
aI2
asI165
(lp1820
I5
aI3
aI4
aI1
asI167
(lp1821
I3
aI4
aI5
asI173
(lp1822
I5
aI1
aI4
aI2
asI46
(lp1823
I3
aI5
aI4
aI2
aI1
asI175
(lp1824
I1
asI61
(lp1825
I5
aI2
asI190
(lp1826
I5
aI4
aI2
aI3
asI192
(lp1827
I2
aI3
aI1
aI5
asI66
(lp1828
I4
aI2
asI199
(lp1829
I4
aI5
aI3
aI1
aI2
asI200
(lp1830
I5
aI3
aI4
aI1
asI87
(lp1831
I5
aI4
aI1
aI3
aI2
asI98
(lp1832
I4
aI3
aI1
asI103
(lp1833
I2
aI3
asI109
(lp1834
I3
aI1
aI4
asI122
(lp1835
I3
aI2
aI1
aI5
aI4
asI123
(lp1836
I2
aI1
aI5
asI127
(lp1837
I2
aI4
aI3
aI1
asa(dp1838
I161
(lp1839
I4
asI195
(lp1840
I3
aI4
aI2
asI68
(lp1841
I3
aI2
aI5
aI1
asI133
(lp1842
I1
aI3
aI4
aI2
asI104
(lp1843
I5
aI4
aI2
aI3
aI1
asI105
(lp1844
I4
aI2
aI5
aI3
aI1
asI42
(lp1845
I5
aI1
asI189
(lp1846
I4
asI173
(lp1847
I3
aI4
asI110
(lp1848
I4
aI5
asI143
(lp1849
I4
aI1
aI3
asI113
(lp1850
I3
aI2
aI1
asI118
(lp1851
I1
aI4
aI5
asI169
(lp1852
I1
aI2
aI5
asI152
(lp1853
I2
aI4
aI3
asI186
(lp1854
I3
asI184
(lp1855
I5
asI124
(lp1856
I2
aI5
aI4
aI1
asI106
(lp1857
I2
aI4
aI5
aI3
asI150
(lp1858
I5
asI127
(lp1859
I2
aI4
aI5
aI1
asa(dp1860
I132
(lp1861
I1
asI5
(lp1862
I3
aI4
asI135
(lp1863
I2
aI4
aI1
asI16
(lp1864
I2
asI148
(lp1865
I1
aI2
aI5
aI3
aI4
asI149
(lp1866
I2
asI153
(lp1867
I3
asI157
(lp1868
I1
asI160
(lp1869
I2
aI4
aI1
asI45
(lp1870
I3
aI5
aI2
aI1
asI48
(lp1871
I3
aI2
aI1
asI184
(lp1872
I2
asI60
(lp1873
I2
aI4
aI1
aI5
aI3
asI189
(lp1874
I3
aI1
asI193
(lp1875
I3
aI5
aI1
asI196
(lp1876
I1
asI199
(lp1877
I5
aI1
aI2
aI3
aI4
asI200
(lp1878
I1
aI5
aI2
aI3
aI4
asI111
(lp1879
I3
asI114
(lp1880
I3
asI119
(lp1881
I3
asI124
(lp1882
I1
aI5
aI4
aI3
aI2
asI125
(lp1883
I5
asI127
(lp1884
I4
asa(dp1885
I129
(lp1886
I1
aI3
aI4
asI139
(lp1887
I5
asI141
(lp1888
I3
aI5
aI2
aI1
aI4
asI142
(lp1889
I5
aI3
aI2
asI144
(lp1890
I2
aI1
aI4
asI152
(lp1891
I2
aI5
asI26
(lp1892
I5
asI159
(lp1893
I2
aI1
asI164
(lp1894
I3
aI4
asI46
(lp1895
I1
aI5
aI4
asI175
(lp1896
I4
aI3
aI5
aI2
asI49
(lp1897
I5
aI3
aI2
aI1
asI179
(lp1898
I2
aI5
asI182
(lp1899
I3
aI4
aI1
asI188
(lp1900
I2
asI193
(lp1901
I3
asI196
(lp1902
I2
aI4
aI3
aI1
aI5
asI197
(lp1903
I4
aI3
asI87
(lp1904
I5
aI1
aI4
aI3
aI2
asI92
(lp1905
I5
asI102
(lp1906
I4
aI5
aI2
asI105
(lp1907
I2
aI3
asI115
(lp1908
I1
asa(dp1909
I161
(lp1910
I3
aI5
asI34
(lp1911
I4
asI99
(lp1912
I4
aI2
aI3
asI164
(lp1913
I4
asI130
(lp1914
I3
aI4
asI193
(lp1915
I1
aI4
aI3
aI2
asI105
(lp1916
I5
aI4
asI170
(lp1917
I2
aI5
aI4
aI1
aI3
asI107
(lp1918
I3
aI4
aI2
aI1
asI140
(lp1919
I1
aI3
asI114
(lp1920
I5
aI2
aI1
aI3
aI4
asI173
(lp1921
I5
aI4
aI1
aI2
asI82
(lp1922
I2
asI115
(lp1923
I2
aI1
aI3
aI4
aI5
asI116
(lp1924
I1
aI3
asI171
(lp1925
I5
aI4
asI169
(lp1926
I5
aI2
aI4
aI1
aI3
asI175
(lp1927
I1
aI4
aI2
aI3
asI188
(lp1928
I5
aI1
aI3
asI157
(lp1929
I2
aI4
asI190
(lp1930
I3
asa(dp1931
I130
(lp1932
I1
aI2
aI4
aI5
aI3
asI131
(lp1933
I2
asI135
(lp1934
I4
aI1
asI141
(lp1935
I3
aI5
aI4
aI2
asI144
(lp1936
I5
aI4
aI3
asI146
(lp1937
I3
aI5
aI2
aI4
asI149
(lp1938
I4
aI1
asI29
(lp1939
I3
asI32
(lp1940
I1
aI3
asI37
(lp1941
I1
aI5
aI4
aI2
aI3
asI38
(lp1942
I5
asI40
(lp1943
I5
aI2
aI4
aI3
asI169
(lp1944
I5
aI4
asI171
(lp1945
I2
aI5
aI3
aI4
asI175
(lp1946
I5
aI4
aI3
asI177
(lp1947
I3
aI4
aI2
aI5
asI50
(lp1948
I3
aI4
aI1
aI5
aI2
asI184
(lp1949
I4
aI5
asI187
(lp1950
I4
asI62
(lp1951
I4
aI2
asI160
(lp1952
I2
aI3
asI67
(lp1953
I5
aI3
aI2
aI4
asI198
(lp1954
I5
aI4
asI200
(lp1955
I4
aI5
aI1
aI3
asI82
(lp1956
I5
aI2
aI1
aI4
aI3
asI91
(lp1957
I5
asI166
(lp1958
I3
aI5
aI2
aI4
asI103
(lp1959
I5
aI3
asI105
(lp1960
I3
aI4
aI1
aI5
aI2
asI106
(lp1961
I3
aI4
aI1
asI114
(lp1962
I3
aI4
asI190
(lp1963
I1
aI2
aI3
asI118
(lp1964
I3
aI5
aI4
aI2
asI122
(lp1965
I5
aI3
aI2
aI4
asI124
(lp1966
I2
aI4
aI5
asa(dp1967
I128
(lp1968
I1
aI3
aI5
asI161
(lp1969
I4
asI181
(lp1970
I1
asI155
(lp1971
I5
aI4
aI1
aI3
aI2
asI5
(lp1972
I2
aI3
asI134
(lp1973
I1
asI199
(lp1974
I1
aI4
aI2
aI5
asI9
(lp1975
I1
asI170
(lp1976
I4
aI1
asI107
(lp1977
I5
aI4
aI2
aI3
aI1
asI108
(lp1978
I4
aI2
aI3
aI1
aI5
asI109
(lp1979
I2
aI4
aI3
aI1
asI143
(lp1980
I4
aI2
aI1
aI5
asI178
(lp1981
I3
asI149
(lp1982
I3
aI2
asI119
(lp1983
I3
aI4
asI191
(lp1984
I2
aI3
aI5
asI123
(lp1985
I4
aI3
asI156
(lp1986
I4
aI1
aI3
aI5
aI2
asI157
(lp1987
I1
aI3
aI5
aI4
asI166
(lp1988
I3
asa(dp1989
I128
(lp1990
I2
aI3
aI1
asI138
(lp1991
I4
asI15
(lp1992
I5
aI3
aI2
asI145
(lp1993
I2
aI5
aI1
asI148
(lp1994
I1
aI3
asI21
(lp1995
I1
aI4
aI5
asI25
(lp1996
I5
asI163
(lp1997
I4
asI169
(lp1998
I4
aI5
asI172
(lp1999
I5
aI2
aI1
asI174
(lp2000
I1
aI5
asI178
(lp2001
I2
asI181
(lp2002
I4
aI5
aI1
asI184
(lp2003
I1
aI2
aI5
aI3
aI4
asI185
(lp2004
I1
asI61
(lp2005
I4
aI3
aI2
aI5
aI1
asI190
(lp2006
I5
aI2
asI192
(lp2007
I3
aI2
asI198
(lp2008
I4
aI2
aI3
aI1
asI77
(lp2009
I1
aI3
aI2
aI5
aI4
asI101
(lp2010
I4
aI3
aI2
aI5
asI106
(lp2011
I3
aI4
aI2
aI1
aI5
asI107
(lp2012
I4
aI2
aI1
asI189
(lp2013
I2
aI5
aI3
aI1
aI4
asI118
(lp2014
I5
asI120
(lp2015
I3
aI4
asI126
(lp2016
I5
aI3
aI2
aI1
aI4
asI127
(lp2017
I3
aI2
aI1
aI4
aI5
asa(dp2018
I135
(lp2019
I4
aI3
aI2
aI1
asI11
(lp2020
I3
aI1
aI2
asI146
(lp2021
I2
asI21
(lp2022
I5
aI2
asI150
(lp2023
I2
aI1
aI3
asI24
(lp2024
I2
aI5
aI3
aI4
aI1
asI155
(lp2025
I1
asI33
(lp2026
I1
aI5
asI165
(lp2027
I4
aI5
aI3
asI168
(lp2028
I5
aI3
aI1
aI4
asI170
(lp2029
I5
aI1
aI4
asI172
(lp2030
I4
asI175
(lp2031
I5
aI1
aI2
asI177
(lp2032
I2
asI180
(lp2033
I1
aI5
aI2
asI183
(lp2034
I4
aI2
asI187
(lp2035
I4
aI2
aI5
aI3
asI191
(lp2036
I4
aI1
aI5
asI195
(lp2037
I4
asI199
(lp2038
I4
aI3
aI5
aI1
asI103
(lp2039
I1
asI108
(lp2040
I4
aI2
aI1
aI5
aI3
asI109
(lp2041
I2
aI1
aI5
aI4
asI115
(lp2042
I4
aI2
aI3
aI1
aI5
asI116
(lp2043
I2
aI4
aI3
aI1
asa(dp2044
I131
(lp2045
I1
asI144
(lp2046
I1
aI4
aI5
aI2
asI17
(lp2047
I4
aI2
aI5
aI1
asI148
(lp2048
I1
aI3
asI152
(lp2049
I2
aI4
aI3
aI5
asI157
(lp2050
I5
asI159
(lp2051
I1
aI3
aI4
asI166
(lp2052
I3
aI2
aI1
aI4
aI5
asI167
(lp2053
I2
aI1
aI4
asI178
(lp2054
I3
aI5
aI4
aI1
asI181
(lp2055
I3
aI4
aI5
aI1
aI2
asI182
(lp2056
I4
aI5
aI1
asI185
(lp2057
I5
asI187
(lp2058
I3
aI5
aI4
asI190
(lp2059
I3
aI1
aI2
aI4
asI197
(lp2060
I3
asI77
(lp2061
I4
aI3
aI2
aI1
aI5
asI96
(lp2062
I5
aI3
asI106
(lp2063
I4
aI1
aI3
asI112
(lp2064
I5
aI4
aI1
aI2
asI114
(lp2065
I4
aI1
aI2
aI3
asI122
(lp2066
I1
aI4
aI2
aI3
aI5
asI123
(lp2067
I4
asa(dp2068
I134
(lp2069
I1
aI5
aI4
aI2
aI3
asI135
(lp2070
I1
asI138
(lp2071
I5
asI140
(lp2072
I4
aI5
aI2
aI3
aI1
asI13
(lp2073
I5
aI3
asI143
(lp2074
I4
aI2
aI5
aI3
asI148
(lp2075
I3
aI2
aI1
asI157
(lp2076
I1
aI4
asI163
(lp2077
I4
aI1
aI5
aI3
aI2
asI164
(lp2078
I1
aI5
aI3
aI4
asI168
(lp2079
I3
asI29
(lp2080
I4
aI2
aI5
aI1
aI3
asI176
(lp2081
I3
aI5
aI4
aI2
asI180
(lp2082
I3
aI2
aI1
aI5
asI186
(lp2083
I3
aI1
aI4
asI195
(lp2084
I1
aI4
asI68
(lp2085
I1
aI5
aI3
aI2
aI4
asI141
(lp2086
I5
aI4
aI2
aI3
asI95
(lp2087
I2
aI5
aI1
asI104
(lp2088
I2
aI4
aI1
asI123
(lp2089
I1
aI5
aI2
aI4
aI3
asI124
(lp2090
I5
asI126
(lp2091
I1
aI4
asa(dp2092
I132
(lp2093
I1
aI5
asI135
(lp2094
I3
aI4
aI1
asI142
(lp2095
I2
aI3
aI5
aI1
aI4
asI143
(lp2096
I3
aI2
asI148
(lp2097
I5
asI150
(lp2098
I1
aI5
asI154
(lp2099
I3
aI5
aI1
aI4
aI2
asI155
(lp2100
I5
aI1
aI3
asI157
(lp2101
I3
asI166
(lp2102
I5
aI2
aI3
aI4
aI1
asI167
(lp2103
I2
aI3
aI4
aI1
aI5
asI168
(lp2104
I3
aI4
asI44
(lp2105
I4
aI2
aI1
aI5
asI178
(lp2106
I4
aI2
aI1
asI183
(lp2107
I4
aI5
asI186
(lp2108
I3
aI1
asI191
(lp2109
I3
aI1
aI2
asI200
(lp2110
I5
aI1
aI4
asI74
(lp2111
I1
aI2
aI3
asI81
(lp2112
I5
aI4
aI1
aI2
aI3
asI82
(lp2113
I4
aI1
aI2
aI5
aI3
asI102
(lp2114
I2
aI1
aI3
asI109
(lp2115
I1
aI5
asI112
(lp2116
I4
aI1
aI3
aI5
aI2
asI113
(lp2117
I1
aI4
aI3
aI5
asI120
(lp2118
I1
asI126
(lp2119
I3
aI1
aI5
aI2
asa(dp2120
I131
(lp2121
I5
aI1
aI3
aI2
asI133
(lp2122
I1
aI3
aI2
aI5
aI4
asI134
(lp2123
I3
asI139
(lp2124
I3
aI1
aI4
aI2
aI5
asI140
(lp2125
I3
aI1
aI4
asI17
(lp2126
I4
aI1
asI148
(lp2127
I3
asI153
(lp2128
I2
aI3
aI1
asI162
(lp2129
I3
aI5
aI2
aI1
aI4
asI163
(lp2130
I3
aI5
aI2
asI167
(lp2131
I5
aI2
aI1
aI4
aI3
asI168
(lp2132
I2
aI1
aI5
aI4
aI3
asI169
(lp2133
I1
aI5
asI172
(lp2134
I2
asI183
(lp2135
I3
asI194
(lp2136
I1
aI5
aI2
aI3
asI197
(lp2137
I3
aI2
asI103
(lp2138
I1
aI5
aI2
aI3
asI106
(lp2139
I2
aI1
aI3
aI4
aI5
asI107
(lp2140
I2
aI1
asI118
(lp2141
I4
aI5
aI2
asI121
(lp2142
I2
aI4
aI3
aI5
aI1
asI122
(lp2143
I4
aI3
asI126
(lp2144
I2
aI5
aI4
asa(dp2145
I130
(lp2146
I1
aI2
asI137
(lp2147
I1
asI141
(lp2148
I4
asI156
(lp2149
I2
aI4
aI5
aI3
aI1
asI157
(lp2150
I4
aI5
asI160
(lp2151
I3
aI5
aI4
aI1
asI163
(lp2152
I4
aI3
aI5
asI38
(lp2153
I3
aI2
asI167
(lp2154
I4
aI5
aI1
asI170
(lp2155
I4
aI1
aI5
aI3
asI174
(lp2156
I1
aI5
aI3
aI2
asI178
(lp2157
I3
aI2
aI4
asI185
(lp2158
I5
aI1
aI4
asI187
(lp2159
I4
asI193
(lp2160
I3
asI76
(lp2161
I4
aI2
asI83
(lp2162
I3
asI104
(lp2163
I2
aI4
asI108
(lp2164
I1
aI4
asI117
(lp2165
I1
asI122
(lp2166
I2
aI4
aI5
aI1
aI3
asI123
(lp2167
I4
aI2
asa(dp2168
I132
(lp2169
I2
aI3
aI4
aI5
aI1
asI133
(lp2170
I3
aI4
asI8
(lp2171
I1
aI5
aI4
aI3
asI141
(lp2172
I1
aI5
aI2
asI144
(lp2173
I5
aI3
asI146
(lp2174
I3
aI5
aI2
aI4
aI1
asI147
(lp2175
I5
aI2
aI3
asI149
(lp2176
I5
aI3
asI151
(lp2177
I2
aI5
aI3
asI154
(lp2178
I2
aI5
aI4
asI157
(lp2179
I2
aI1
aI3
aI4
asI31
(lp2180
I5
asI33
(lp2181
I2
aI4
aI1
aI3
aI5
asI164
(lp2182
I5
asI166
(lp2183
I4
aI3
aI1
aI2
asI177
(lp2184
I1
asI181
(lp2185
I4
aI2
aI5
aI1
aI3
asI182
(lp2186
I2
aI5
aI1
aI4
asI185
(lp2187
I1
aI5
asI188
(lp2188
I1
aI2
aI5
aI4
asI62
(lp2189
I1
aI3
aI2
asI192
(lp2190
I2
aI4
aI5
aI1
asI197
(lp2191
I1
asI107
(lp2192
I4
aI3
aI1
aI2
asI114
(lp2193
I2
aI3
aI5
asI120
(lp2194
I4
aI3
aI1
asa(dp2195
I131
(lp2196
I2
aI1
aI5
asI137
(lp2197
I1
aI3
aI5
aI2
asI144
(lp2198
I4
aI3
asI150
(lp2199
I3
aI2
aI4
aI1
asI29
(lp2200
I1
aI2
asI158
(lp2201
I1
aI5
aI4
aI3
asI161
(lp2202
I4
aI3
aI1
aI5
asI166
(lp2203
I5
asI168
(lp2204
I4
asI45
(lp2205
I3
asI179
(lp2206
I3
aI1
aI4
aI2
aI5
asI180
(lp2207
I1
aI4
aI3
asI187
(lp2208
I2
aI3
aI5
asI191
(lp2209
I3
aI2
aI1
aI5
aI4
asI192
(lp2210
I3
aI2
aI1
asI200
(lp2211
I4
aI1
aI2
asI88
(lp2212
I5
aI4
aI3
asI95
(lp2213
I2
aI3
aI1
aI5
aI4
asI96
(lp2214
I3
aI1
asI106
(lp2215
I5
aI4
asI108
(lp2216
I1
aI3
aI2
aI4
asI123
(lp2217
I3
aI2
aI5
aI1
asI127
(lp2218
I1
asa(dp2219
I128
(lp2220
I2
aI5
aI4
asI131
(lp2221
I4
aI5
aI1
aI2
aI3
asI132
(lp2222
I5
aI1
aI2
aI3
asI134
(lp2223
I2
asI9
(lp2224
I1
aI5
aI3
aI2
aI4
asI10
(lp2225
I5
asI140
(lp2226
I2
aI4
aI3
asI146
(lp2227
I1
aI3
aI4
aI5
asI153
(lp2228
I1
asI26
(lp2229
I5
aI1
aI4
asI28
(lp2230
I1
asI161
(lp2231
I1
aI2
aI4
asI39
(lp2232
I1
aI4
aI5
aI2
aI3
asI169
(lp2233
I4
aI2
aI5
asI174
(lp2234
I1
asI51
(lp2235
I5
aI1
asI137
(lp2236
I2
aI5
aI3
asI184
(lp2237
I2
aI3
aI1
aI5
asI193
(lp2238
I2
aI5
aI3
aI1
asI196
(lp2239
I2
aI3
aI5
asI200
(lp2240
I5
asI95
(lp2241
I5
aI1
asI97
(lp2242
I1
aI5
aI2
aI4
aI3
asI100
(lp2243
I2
aI1
asI112
(lp2244
I5
aI2
asI114
(lp2245
I5
aI1
asI116
(lp2246
I5
asI118
(lp2247
I4
aI3
asI126
(lp2248
I5
aI3
aI2
asa(dp2249
I128
(lp2250
I3
aI1
aI4
asI133
(lp2251
I4
aI3
aI5
aI2
aI1
asI134
(lp2252
I4
aI3
aI5
aI2
asI7
(lp2253
I5
aI2
aI4
aI3
asI139
(lp2254
I3
aI5
aI4
asI142
(lp2255
I4
aI3
aI5
aI2
asI17
(lp2256
I4
aI1
aI5
asI148
(lp2257
I2
aI4
asI156
(lp2258
I2
aI5
asI159
(lp2259
I4
aI3
aI1
aI2
asI43
(lp2260
I1
aI5
asI173
(lp2261
I1
aI3
aI4
aI5
asI46
(lp2262
I5
aI4
aI1
asI53
(lp2263
I5
aI1
aI3
asI182
(lp2264
I5
asI184
(lp2265
I3
aI5
asI187
(lp2266
I1
aI3
aI2
asI195
(lp2267
I2
aI1
aI5
aI3
asI199
(lp2268
I3
asI73
(lp2269
I5
aI1
asI75
(lp2270
I4
asI95
(lp2271
I1
asI105
(lp2272
I5
aI4
asI107
(lp2273
I1
aI5
aI3
aI4
asI110
(lp2274
I3
asI118
(lp2275
I5
asI120
(lp2276
I1
aI2
asI127
(lp2277
I3
aI1
aI4
aI5
aI2
asa(dp2278
I129
(lp2279
I1
aI5
aI2
asI3
(lp2280
I3
aI1
asI132
(lp2281
I2
aI5
asI135
(lp2282
I3
aI2
aI1
aI4
aI5
asI136
(lp2283
I2
aI1
aI3
asI142
(lp2284
I3
aI2
aI5
aI4
asI147
(lp2285
I2
aI4
aI3
aI5
aI1
asI148
(lp2286
I4
aI3
asI156
(lp2287
I5
asI158
(lp2288
I2
aI5
asI161
(lp2289
I3
asI166
(lp2290
I4
aI1
aI5
asI42
(lp2291
I5
aI3
asI174
(lp2292
I2
aI4
asI47
(lp2293
I3
aI4
asI181
(lp2294
I5
aI3
aI4
aI2
asI183
(lp2295
I4
aI2
aI5
asI58
(lp2296
I5
aI1
aI4
asI187
(lp2297
I4
aI3
aI2
aI1
asI197
(lp2298
I1
aI4
asI78
(lp2299
I5
aI4
aI3
asI80
(lp2300
I4
aI3
aI1
aI5
aI2
asI86
(lp2301
I1
aI5
aI4
asI104
(lp2302
I3
aI1
aI4
aI2
aI5
asI105
(lp2303
I1
aI4
aI2
asI111
(lp2304
I5
asI113
(lp2305
I3
aI1
aI4
aI2
asI127
(lp2306
I5
aI3
aI1
aI2
asa(dp2307
I133
(lp2308
I2
asI9
(lp2309
I2
aI3
asI138
(lp2310
I1
aI3
aI2
aI4
aI5
asI139
(lp2311
I3
asI145
(lp2312
I5
aI3
aI1
aI2
asI147
(lp2313
I3
aI1
aI2
asI156
(lp2314
I3
asI162
(lp2315
I5
aI1
aI2
aI3
aI4
asI163
(lp2316
I1
aI2
aI3
aI4
aI5
asI164
(lp2317
I2
asI38
(lp2318
I2
aI1
aI3
asI176
(lp2319
I4
asI179
(lp2320
I2
asI182
(lp2321
I2
aI1
aI3
asI137
(lp2322
I5
aI1
aI3
aI2
aI4
asI57
(lp2323
I5
aI3
aI2
aI1
aI4
asI193
(lp2324
I1
asI69
(lp2325
I2
aI3
aI4
asI81
(lp2326
I2
aI3
aI1
aI4
aI5
asI93
(lp2327
I4
aI2
asI122
(lp2328
I5
asI124
(lp2329
I2
aI3
aI4
aI1
aI5
asI125
(lp2330
I3
aI4
asa(dp2331
I132
(lp2332
I2
aI4
aI1
asI5
(lp2333
I2
aI1
aI4
aI3
aI5
asI193
(lp2334
I2
aI1
asI138
(lp2335
I5
aI2
aI3
asI140
(lp2336
I2
aI3
aI4
aI1
aI5
asI141
(lp2337
I3
aI4
asI147
(lp2338
I3
aI5
aI4
aI1
aI2
asI148
(lp2339
I5
aI4
aI3
asI150
(lp2340
I5
aI4
aI3
aI1
aI2
asI151
(lp2341
I4
aI3
aI1
aI5
aI2
asI152
(lp2342
I4
aI3
aI1
aI5
asI162
(lp2343
I2
aI5
aI1
aI3
aI4
asI163
(lp2344
I5
aI1
asI165
(lp2345
I1
asI168
(lp2346
I2
aI4
aI5
asI175
(lp2347
I5
aI1
asI177
(lp2348
I5
asI179
(lp2349
I2
aI5
aI3
aI4
aI1
asI180
(lp2350
I5
aI3
asI182
(lp2351
I4
aI1
aI2
asI189
(lp2352
I1
aI5
aI2
asI192
(lp2353
I2
aI1
aI4
aI3
aI5
asI65
(lp2354
I4
aI5
aI2
asI68
(lp2355
I4
aI2
aI1
aI5
aI3
asI37
(lp2356
I2
aI1
aI4
aI5
asI114
(lp2357
I5
aI2
asI116
(lp2358
I2
aI4
asa(dp2359
I130
(lp2360
I1
aI5
aI2
aI3
aI4
asI131
(lp2361
I5
asI133
(lp2362
I3
aI1
asI10
(lp2363
I4
aI3
aI1
aI2
asI144
(lp2364
I2
asI148
(lp2365
I5
asI150
(lp2366
I4
aI1
aI2
asI156
(lp2367
I4
aI1
aI5
asI33
(lp2368
I3
aI5
aI1
aI2
asI163
(lp2369
I5
aI1
aI4
aI2
asI165
(lp2370
I4
asI168
(lp2371
I2
asI179
(lp2372
I4
aI1
aI3
asI188
(lp2373
I2
asI197
(lp2374
I2
aI3
aI5
aI1
asI93
(lp2375
I1
asI100
(lp2376
I5
aI1
aI3
aI2
aI4
asI101
(lp2377
I1
aI3
aI5
aI2
aI4
asI102
(lp2378
I1
asI106
(lp2379
I1
aI5
asI109
(lp2380
I5
aI4
aI3
aI1
aI2
asI110
(lp2381
I4
aI3
aI1
aI5
aI2
asI111
(lp2382
I4
aI3
aI1
aI5
asI116
(lp2383
I3
aI5
aI1
asI119
(lp2384
I3
aI1
aI2
aI5
aI4
asI120
(lp2385
I1
aI2
aI3
asa(dp2386
I133
(lp2387
I4
aI5
aI3
asI136
(lp2388
I5
aI4
aI3
aI1
asI138
(lp2389
I3
aI5
aI1
aI2
asI141
(lp2390
I3
aI1
aI2
aI5
aI4
asI142
(lp2391
I3
aI1
aI2
asI152
(lp2392
I5
aI1
aI2
aI4
asI25
(lp2393
I5
asI154
(lp2394
I2
asI157
(lp2395
I5
aI2
asI30
(lp2396
I2
aI4
asI159
(lp2397
I1
aI4
asI165
(lp2398
I4
aI1
aI5
aI2
aI3
asI166
(lp2399
I1
aI4
aI5
aI2
asI171
(lp2400
I1
aI2
aI5
aI4
asI175
(lp2401
I4
aI3
aI5
aI1
aI2
asI176
(lp2402
I3
aI4
aI5
aI1
asI180
(lp2403
I5
asI182
(lp2404
I4
aI2
aI3
aI5
asI189
(lp2405
I5
aI1
aI3
asI191
(lp2406
I1
aI3
aI5
aI2
aI4
asI192
(lp2407
I1
asI89
(lp2408
I3
aI2
asI93
(lp2409
I1
aI4
asI105
(lp2410
I2
aI5
aI3
asI108
(lp2411
I3
aI2
aI5
asI114
(lp2412
I2
aI1
aI4
aI5
aI3
asI115
(lp2413
I2
aI1
asI123
(lp2414
I3
aI2
aI1
aI5
asa(dp2415
I131
(lp2416
I4
aI3
aI1
aI5
asI9
(lp2417
I5
aI4
aI3
aI2
aI1
asI138
(lp2418
I2
aI1
aI5
aI3
asI11
(lp2419
I4
aI3
aI2
aI1
aI5
asI142
(lp2420
I5
aI3
aI1
asI144
(lp2421
I3
aI1
aI2
aI4
aI5
asI145
(lp2422
I3
aI1
aI2
asI158
(lp2423
I2
aI4
asI164
(lp2424
I3
aI2
aI4
asI38
(lp2425
I2
aI3
asI173
(lp2426
I4
aI2
aI3
aI5
aI1
asI174
(lp2427
I2
aI3
aI5
aI1
asI178
(lp2428
I1
aI5
asI182
(lp2429
I1
asI186
(lp2430
I2
asI192
(lp2431
I5
aI3
asI194
(lp2432
I5
aI2
aI1
asI196
(lp2433
I5
aI2
asI69
(lp2434
I2
aI5
aI1
aI3
aI4
asI198
(lp2435
I1
aI2
asI72
(lp2436
I3
asI105
(lp2437
I5
aI1
asI107
(lp2438
I3
asI125
(lp2439
I3
aI2
aI1
aI5
asa(dp2440
I128
(lp2441
I4
aI2
asI2
(lp2442
I4
aI3
aI1
aI2
asI133
(lp2443
I2
aI3
aI4
aI1
aI5
asI134
(lp2444
I3
aI2
asI142
(lp2445
I2
asI147
(lp2446
I3
aI4
aI2
aI1
asI165
(lp2447
I2
aI5
aI4
aI1
asI169
(lp2448
I1
aI5
aI2
aI4
asI172
(lp2449
I2
aI4
aI3
aI1
aI5
asI173
(lp2450
I4
aI2
asI51
(lp2451
I4
aI3
asI181
(lp2452
I5
aI2
aI4
aI1
aI3
asI182
(lp2453
I2
aI4
aI5
aI1
aI3
asI183
(lp2454
I4
aI5
asI186
(lp2455
I4
aI2
aI5
aI1
asI191
(lp2456
I4
asI198
(lp2457
I5
aI3
asI200
(lp2458
I5
aI4
aI1
asI81
(lp2459
I2
aI1
asI104
(lp2460
I4
aI3
aI1
aI5
aI2
asI105
(lp2461
I3
aI1
aI5
aI4
asI110
(lp2462
I3
aI4
aI2
aI1
asI118
(lp2463
I5
aI4
asI120
(lp2464
I4
aI3
aI5
aI2
asI126
(lp2465
I5
aI2
aI4
aI3
aI1
asI127
(lp2466
I2
aI4
aI5
aI3
aI1
asa(dp2467
I135
(lp2468
I3
aI2
aI1
aI4
aI5
asI136
(lp2469
I2
aI1
aI3
asI145
(lp2470
I2
aI3
aI4
aI1
aI5
asI146
(lp2471
I2
aI3
asI160
(lp2472
I3
aI5
aI2
asI163
(lp2473
I5
aI3
asI165
(lp2474
I5
aI3
aI4
asI167
(lp2475
I5
aI3
aI4
aI1
aI2
asI168
(lp2476
I5
aI3
aI4
aI1
aI2
asI169
(lp2477
I3
aI4
aI5
aI1
aI2
asI170
(lp2478
I4
aI5
aI1
asI173
(lp2479
I5
aI1
aI3
aI2
asI175
(lp2480
I3
asI179
(lp2481
I2
aI3
aI5
asI52
(lp2482
I4
asI185
(lp2483
I5
aI4
aI2
aI1
asI187
(lp2484
I2
aI1
aI5
aI3
asI191
(lp2485
I5
aI1
asI193
(lp2486
I1
aI5
aI2
aI3
aI4
asI194
(lp2487
I1
asI197
(lp2488
I1
aI5
asI200
(lp2489
I3
aI2
aI1
aI5
aI4
asI89
(lp2490
I3
aI5
aI1
asI95
(lp2491
I4
aI2
aI1
asI102
(lp2492
I1
asI114
(lp2493
I2
aI4
aI3
asI124
(lp2494
I4
aI3
asa(dp2495
I130
(lp2496
I2
asI140
(lp2497
I4
asI158
(lp2498
I5
aI4
asI160
(lp2499
I5
aI2
aI3
aI1
asI162
(lp2500
I3
aI5
asI165
(lp2501
I3
aI1
aI2
aI5
aI4
asI166
(lp2502
I3
aI1
aI2
asI48
(lp2503
I2
aI3
aI5
aI4
asI177
(lp2504
I1
aI4
aI5
aI2
asI181
(lp2505
I1
aI4
aI2
aI3
aI5
asI54
(lp2506
I5
aI2
aI1
aI3
asI56
(lp2507
I2
aI1
asI190
(lp2508
I5
aI3
aI4
asI192
(lp2509
I5
aI3
aI4
aI1
aI2
asI193
(lp2510
I3
aI4
aI5
aI1
aI2
asI194
(lp2511
I4
aI5
aI3
asI182
(lp2512
I4
asI198
(lp2513
I1
aI3
aI2
asI91
(lp2514
I4
aI1
asI102
(lp2515
I1
aI4
aI5
aI3
asI107
(lp2516
I3
aI4
aI5
asI111
(lp2517
I2
aI4
asI122
(lp2518
I4
aI1
aI3
aI2
aI5
asI123
(lp2519
I1
aI3
aI2
aI5
asa(dp2520
I131
(lp2521
I3
aI2
aI1
aI4
asI145
(lp2522
I4
asI150
(lp2523
I2
aI5
aI3
aI4
asI153
(lp2524
I5
aI3
asI155
(lp2525
I5
aI4
aI2
asI157
(lp2526
I4
aI2
aI3
aI1
aI5
asI158
(lp2527
I2
aI4
aI3
aI1
asI166
(lp2528
I4
aI2
aI1
aI3
asI180
(lp2529
I5
aI4
aI1
asI182
(lp2530
I4
aI1
aI5
aI2
aI3
asI183
(lp2531
I1
aI5
aI4
aI2
asI187
(lp2532
I2
aI1
aI3
aI5
asI193
(lp2533
I4
aI1
aI2
asI70
(lp2534
I5
aI3
aI4
aI1
asI199
(lp2535
I3
aI5
aI1
asI81
(lp2536
I5
aI2
aI4
aI1
asI100
(lp2537
I5
aI4
asI102
(lp2538
I3
aI4
aI5
aI2
asI106
(lp2539
I4
aI3
asI113
(lp2540
I5
aI1
aI4
aI3
asI115
(lp2541
I1
asI118
(lp2542
I5
asI120
(lp2543
I1
aI4
aI3
aI5
asI126
(lp2544
I1
aI2
aI5
aI4
asa(dp2545
I130
(lp2546
I5
aI1
asI132
(lp2547
I5
asI134
(lp2548
I5
asI136
(lp2549
I2
aI3
aI5
aI1
asI145
(lp2550
I2
aI3
aI5
aI1
aI4
asI146
(lp2551
I3
aI2
asI150
(lp2552
I1
aI3
aI2
aI4
aI5
asI151
(lp2553
I3
asI157
(lp2554
I2
aI1
asI166
(lp2555
I4
aI3
aI1
aI5
aI2
asI167
(lp2556
I3
aI1
aI5
aI2
asI172
(lp2557
I2
asI50
(lp2558
I3
aI2
aI5
aI4
aI1
asI179
(lp2559
I5
aI4
asI181
(lp2560
I5
aI2
aI4
aI1
asI55
(lp2561
I4
aI2
asI185
(lp2562
I1
aI4
aI5
aI3
asI190
(lp2563
I4
aI3
aI2
aI1
asI68
(lp2564
I5
asI198
(lp2565
I2
aI4
asI183
(lp2566
I5
aI4
asI101
(lp2567
I2
aI5
aI3
aI1
aI4
asI102
(lp2568
I5
aI3
asI104
(lp2569
I1
aI3
aI5
asI110
(lp2570
I1
aI2
aI3
asI118
(lp2571
I5
aI2
aI1
aI3
asI120
(lp2572
I2
aI1
asI126
(lp2573
I4
aI5
aI2
asa(dp2574
I129
(lp2575
I3
aI5
asI132
(lp2576
I2
aI4
aI1
aI3
aI5
asI133
(lp2577
I4
aI1
asI8
(lp2578
I3
aI1
aI2
asI141
(lp2579
I5
asI143
(lp2580
I3
aI5
aI2
asI146
(lp2581
I2
aI5
aI1
aI4
aI3
asI147
(lp2582
I5
aI1
asI149
(lp2583
I5
asI22
(lp2584
I3
aI1
aI5
aI4
asI151
(lp2585
I2
aI1
aI4
aI5
aI3
asI152
(lp2586
I2
aI1
asI179
(lp2587
I1
asI29
(lp2588
I3
aI2
aI1
aI4
asI161
(lp2589
I3
aI4
aI1
aI5
aI2
asI162
(lp2590
I4
aI1
aI5
asI166
(lp2591
I3
asI45
(lp2592
I1
aI5
asI49
(lp2593
I5
aI1
aI4
asI51
(lp2594
I1
aI4
aI3
aI5
aI2
asI194
(lp2595
I3
asI173
(lp2596
I2
aI1
aI4
aI5
asI82
(lp2597
I5
aI2
asI94
(lp2598
I5
aI2
asI112
(lp2599
I1
aI4
aI5
asI118
(lp2600
I3
aI2
asI122
(lp2601
I2
asa(dp2602
I179
(lp2603
I5
aI2
aI1
asI135
(lp2604
I1
aI2
aI5
aI4
asI140
(lp2605
I4
aI3
aI1
aI5
aI2
asI141
(lp2606
I3
aI1
aI5
aI2
asI15
(lp2607
I3
aI4
aI1
aI2
asI145
(lp2608
I1
asI22
(lp2609
I4
asI159
(lp2610
I1
aI3
asI33
(lp2611
I1
aI3
aI5
aI4
asI164
(lp2612
I3
aI2
aI1
asI42
(lp2613
I3
aI4
aI1
aI2
aI5
asI172
(lp2614
I1
aI3
aI2
aI5
asI51
(lp2615
I3
asI181
(lp2616
I1
aI3
asI57
(lp2617
I3
aI4
aI5
aI1
aI2
asI189
(lp2618
I1
aI4
aI3
aI2
asI197
(lp2619
I1
aI4
asI70
(lp2620
I4
asI73
(lp2621
I4
aI5
aI2
asI100
(lp2622
I4
aI2
aI5
aI3
aI1
asI101
(lp2623
I4
aI2
aI5
aI3
asI105
(lp2624
I3
aI4
aI2
asI119
(lp2625
I3
aI4
aI2
aI5
asI127
(lp2626
I2
aI3
aI1
asa(dp2627
I131
(lp2628
I2
aI5
aI3
aI1
asI134
(lp2629
I3
aI1
asI138
(lp2630
I2
aI3
asI19
(lp2631
I3
aI1
aI5
aI2
aI4
asI148
(lp2632
I4
aI5
asI153
(lp2633
I4
asI157
(lp2634
I2
aI3
aI1
aI5
aI4
asI158
(lp2635
I3
aI1
asI162
(lp2636
I1
asI168
(lp2637
I1
aI3
aI5
aI4
asI175
(lp2638
I1
aI4
aI2
aI5
aI3
asI176
(lp2639
I4
asI186
(lp2640
I5
asI188
(lp2641
I1
aI5
aI3
asI191
(lp2642
I4
aI2
aI3
asI87
(lp2643
I5
aI2
aI1
aI4
aI3
asI88
(lp2644
I2
aI1
aI5
aI4
aI3
asI89
(lp2645
I2
aI1
asI98
(lp2646
I3
aI2
aI1
aI5
aI4
asI103
(lp2647
I1
asI110
(lp2648
I1
aI5
aI2
aI4
aI3
asI111
(lp2649
I5
asI113
(lp2650
I1
asa(dp2651
I130
(lp2652
I3
aI5
aI1
asI3
(lp2653
I1
asI133
(lp2654
I5
aI1
aI2
asI135
(lp2655
I2
asI139
(lp2656
I4
aI5
aI3
asI143
(lp2657
I5
aI3
aI4
aI2
aI1
asI144
(lp2658
I3
aI5
aI4
aI2
aI1
asI145
(lp2659
I5
aI3
aI4
asI147
(lp2660
I4
aI2
aI5
asI151
(lp2661
I4
asI157
(lp2662
I2
aI1
aI4
aI3
asI165
(lp2663
I2
asI170
(lp2664
I2
asI45
(lp2665
I3
aI5
aI1
aI4
aI2
asI180
(lp2666
I5
aI3
asI182
(lp2667
I2
aI4
aI3
asI61
(lp2668
I4
aI3
aI1
aI5
asI194
(lp2669
I5
aI2
asI196
(lp2670
I5
aI4
asI198
(lp2671
I3
aI4
aI1
aI5
asI90
(lp2672
I3
aI4
aI2
asI102
(lp2673
I2
aI1
aI5
asI106
(lp2674
I4
aI1
asI111
(lp2675
I3
aI5
aI4
aI1
aI2
asI112
(lp2676
I5
aI4
aI3
asI114
(lp2677
I3
aI1
aI4
aI2
asI126
(lp2678
I1
aI2
aI5
aI3
aI4
asI127
(lp2679
I2
asa.