(lp1
(dp2
I128
(lp3
I3
asI3
(lp4
I3
asI7
(lp5
I2
aI4
asI10
(lp6
I2
aI5
asI140
(lp7
I2
asI13
(lp8
I5
aI2
asI14
(lp9
I5
aI2
asI15
(lp10
I2
aI4
asI16
(lp11
I4
asI145
(lp12
I4
asI18
(lp13
I4
aI3
asI19
(lp14
I3
aI1
asI20
(lp15
I1
asI150
(lp16
I2
aI3
asI151
(lp17
I2
asI25
(lp18
I3
aI5
asI26
(lp19
I5
asI28
(lp20
I5
asI30
(lp21
I1
aI4
asI33
(lp22
I5
asI35
(lp23
I1
aI3
asI36
(lp24
I3
asI163
(lp25
I3
asI39
(lp26
I2
asI42
(lp27
I3
asI172
(lp28
I2
asI46
(lp29
I3
aI1
asI47
(lp30
I1
asI176
(lp31
I4
aI2
asI179
(lp32
I3
asI52
(lp33
I3
asI55
(lp34
I5
aI3
asI57
(lp35
I5
aI4
asI59
(lp36
I3
aI2
asI189
(lp37
I3
aI4
asI193
(lp38
I4
asI73
(lp39
I5
aI3
asI74
(lp40
I5
aI3
asI75
(lp41
I5
aI3
asI76
(lp42
I5
aI3
asI77
(lp43
I3
aI2
asI78
(lp44
I2
aI4
asI81
(lp45
I5
asI83
(lp46
I5
aI3
asI84
(lp47
I3
aI5
asI85
(lp48
I5
aI3
asI87
(lp49
I3
aI4
asI91
(lp50
I4
aI1
asI92
(lp51
I1
aI4
asI93
(lp52
I4
asI144
(lp53
I1
aI4
asI98
(lp54
I4
asI100
(lp55
I2
asI103
(lp56
I5
asI105
(lp57
I1
asI167
(lp58
I1
asI108
(lp59
I3
asI111
(lp60
I4
aI1
asI113
(lp61
I4
asI147
(lp62
I1
aI4
asI120
(lp63
I1
asI148
(lp64
I4
asI123
(lp65
I1
asI143
(lp66
I5
aI1
asI127
(lp67
I1
aI3
asa(dp68
I4
(lp69
I1
asI133
(lp70
I2
asI7
(lp71
I4
asI9
(lp72
I3
asI12
(lp73
I5
asI14
(lp74
I1
aI3
asI15
(lp75
I1
asI146
(lp76
I1
asI19
(lp77
I2
asI150
(lp78
I4
asI152
(lp79
I3
aI2
asI153
(lp80
I2
aI5
asI156
(lp81
I3
aI2
asI157
(lp82
I2
aI4
asI33
(lp83
I4
aI1
asI37
(lp84
I1
aI2
asI38
(lp85
I2
asI167
(lp86
I2
aI5
asI168
(lp87
I5
asI41
(lp88
I5
aI3
asI42
(lp89
I3
aI5
asI43
(lp90
I5
asI172
(lp91
I3
aI2
asI45
(lp92
I2
aI3
asI46
(lp93
I3
asI49
(lp94
I3
aI1
asI50
(lp95
I3
aI1
asI179
(lp96
I3
aI1
asI180
(lp97
I1
aI5
asI55
(lp98
I1
asI184
(lp99
I3
aI2
asI185
(lp100
I2
aI4
asI59
(lp101
I2
aI3
asI60
(lp102
I3
asI190
(lp103
I1
asI64
(lp104
I2
aI3
asI198
(lp105
I1
aI2
asI70
(lp106
I3
aI2
asI71
(lp107
I2
aI1
asI177
(lp108
I5
asI183
(lp109
I4
aI3
asI76
(lp110
I3
aI5
asI77
(lp111
I5
aI2
asI79
(lp112
I3
asI173
(lp113
I2
asI82
(lp114
I3
aI2
asI142
(lp115
I2
aI4
asI87
(lp116
I4
asI89
(lp117
I5
aI4
asI90
(lp118
I4
aI5
asI91
(lp119
I5
aI3
asI92
(lp120
I3
aI1
asI93
(lp121
I3
aI1
asI199
(lp122
I2
asI98
(lp123
I1
aI3
asI113
(lp124
I4
aI5
asI114
(lp125
I5
aI2
asI115
(lp126
I2
aI5
asI116
(lp127
I5
asI118
(lp128
I1
aI4
asI119
(lp129
I1
asI123
(lp130
I1
asI170
(lp131
I5
asa(dp132
I128
(lp133
I2
asI2
(lp134
I2
aI4
asI3
(lp135
I4
asI135
(lp136
I3
asI184
(lp137
I3
asI11
(lp138
I5
aI3
asI12
(lp139
I3
aI2
asI13
(lp140
I3
aI2
asI141
(lp141
I4
asI171
(lp142
I1
asI22
(lp143
I3
aI2
asI196
(lp144
I2
aI5
asI154
(lp145
I5
aI2
asI155
(lp146
I2
aI3
asI156
(lp147
I3
asI30
(lp148
I1
aI5
asI31
(lp149
I5
asI33
(lp150
I4
aI5
asI34
(lp151
I5
aI4
asI35
(lp152
I4
aI2
asI36
(lp153
I4
aI2
asI37
(lp154
I2
aI5
asI38
(lp155
I5
asI40
(lp156
I1
aI4
asI41
(lp157
I4
asI193
(lp158
I3
asI43
(lp159
I3
aI5
asI44
(lp160
I3
asI48
(lp161
I5
aI2
asI50
(lp162
I5
asI52
(lp163
I3
aI5
asI53
(lp164
I3
asI182
(lp165
I4
aI3
asI183
(lp166
I3
aI1
asI56
(lp167
I3
aI2
asI57
(lp168
I2
asI163
(lp169
I3
asI61
(lp170
I5
asI63
(lp171
I5
asI65
(lp172
I5
asI67
(lp173
I3
aI4
asI68
(lp174
I3
aI4
asI199
(lp175
I1
asI76
(lp176
I1
aI5
asI162
(lp177
I2
aI3
asI79
(lp178
I5
aI1
asI80
(lp179
I1
aI4
asI81
(lp180
I4
asI83
(lp181
I4
asI88
(lp182
I3
asI91
(lp183
I2
asI94
(lp184
I4
asI96
(lp185
I2
asI100
(lp186
I5
asI102
(lp187
I4
asI104
(lp188
I2
asI107
(lp189
I1
asI110
(lp190
I1
asI113
(lp191
I1
asI118
(lp192
I2
asI123
(lp193
I5
aI4
asI124
(lp194
I4
aI5
asI125
(lp195
I5
aI4
asI126
(lp196
I4
aI3
asI127
(lp197
I3
aI2
asa(dp198
I4
(lp199
I2
asI179
(lp200
I1
asI7
(lp201
I5
asI9
(lp202
I4
asI151
(lp203
I5
asI140
(lp204
I2
asI14
(lp205
I4
aI1
asI143
(lp206
I1
asI16
(lp207
I1
aI4
asI17
(lp208
I4
asI19
(lp209
I2
aI1
asI23
(lp210
I4
asI137
(lp211
I3
asI25
(lp212
I4
aI5
asI26
(lp213
I5
aI2
asI27
(lp214
I2
aI5
asI28
(lp215
I5
asI157
(lp216
I2
asI30
(lp217
I5
asI32
(lp218
I1
aI2
asI33
(lp219
I1
asI163
(lp220
I1
aI2
asI164
(lp221
I2
asI37
(lp222
I4
asI167
(lp223
I5
aI2
asI169
(lp224
I1
asI199
(lp225
I5
asI173
(lp226
I2
asI46
(lp227
I5
aI4
asI47
(lp228
I5
aI4
asI48
(lp229
I5
aI4
asI49
(lp230
I4
aI1
asI50
(lp231
I1
aI5
asI51
(lp232
I5
asI53
(lp233
I5
aI3
asI54
(lp234
I3
aI4
asI55
(lp235
I4
aI2
asI184
(lp236
I5
asI57
(lp237
I5
asI186
(lp238
I2
aI4
asI59
(lp239
I2
aI1
asI189
(lp240
I4
aI3
asI190
(lp241
I3
aI2
asI63
(lp242
I1
aI5
asI64
(lp243
I5
asI66
(lp244
I1
asI182
(lp245
I5
aI3
asI70
(lp246
I1
aI4
asI71
(lp247
I4
asI75
(lp248
I5
asI77
(lp249
I3
aI5
asI78
(lp250
I5
aI2
asI80
(lp251
I1
asI90
(lp252
I5
asI92
(lp253
I2
aI3
asI93
(lp254
I3
asI187
(lp255
I4
asI101
(lp256
I3
aI4
asI104
(lp257
I2
asI107
(lp258
I3
aI1
asI183
(lp259
I3
aI5
asI147
(lp260
I2
asI119
(lp261
I4
asI153
(lp262
I2
asI121
(lp263
I1
aI4
asI122
(lp264
I1
asI125
(lp265
I2
aI3
asI126
(lp266
I3
asa(dp267
I130
(lp268
I1
asI3
(lp269
I4
aI2
asI4
(lp270
I2
aI3
asI5
(lp271
I3
asI135
(lp272
I5
asI137
(lp273
I4
aI3
asI139
(lp274
I3
aI1
asI12
(lp275
I5
aI1
asI13
(lp276
I5
aI1
asI14
(lp277
I1
aI2
asI15
(lp278
I2
asI144
(lp279
I5
aI2
asI145
(lp280
I2
aI4
asI146
(lp281
I4
asI19
(lp282
I5
aI1
asI20
(lp283
I1
aI4
asI21
(lp284
I4
asI151
(lp285
I4
aI2
asI24
(lp286
I1
aI3
asI154
(lp287
I5
asI175
(lp288
I5
asI156
(lp289
I1
aI5
asI29
(lp290
I3
aI2
asI30
(lp291
I2
aI5
asI133
(lp292
I5
aI3
asI160
(lp293
I1
aI5
asI33
(lp294
I5
aI3
asI35
(lp295
I3
aI1
asI36
(lp296
I3
aI1
asI165
(lp297
I1
aI4
asI166
(lp298
I1
asI43
(lp299
I1
asI172
(lp300
I1
asI157
(lp301
I5
asI177
(lp302
I5
asI51
(lp303
I3
asI180
(lp304
I3
aI5
asI181
(lp305
I5
aI2
asI183
(lp306
I4
asI185
(lp307
I5
asI58
(lp308
I3
asI159
(lp309
I4
aI1
asI188
(lp310
I3
asI61
(lp311
I1
asI65
(lp312
I2
aI1
asI195
(lp313
I1
aI2
asI161
(lp314
I5
asI72
(lp315
I5
aI4
asI73
(lp316
I4
aI5
asI74
(lp317
I5
aI1
asI75
(lp318
I1
aI2
asI76
(lp319
I2
asI79
(lp320
I3
aI5
asI80
(lp321
I5
asI179
(lp322
I5
aI3
asI82
(lp323
I5
aI2
asI163
(lp324
I5
asI84
(lp325
I1
asI90
(lp326
I1
asI199
(lp327
I1
aI5
asI95
(lp328
I2
asI99
(lp329
I2
asI105
(lp330
I1
asI171
(lp331
I2
aI1
asI110
(lp332
I3
asI113
(lp333
I5
asI140
(lp334
I1
asI115
(lp335
I2
asI187
(lp336
I3
aI1
asI122
(lp337
I3
aI1
asI123
(lp338
I1
asI149
(lp339
I5
aI3
asa(dp340
I2
(lp341
I3
asI132
(lp342
I4
aI3
asI5
(lp343
I5
aI1
asI7
(lp344
I3
asI162
(lp345
I4
aI2
asI139
(lp346
I2
aI4
asI140
(lp347
I4
asI142
(lp348
I4
aI2
asI143
(lp349
I4
aI2
asI16
(lp350
I1
aI4
asI17
(lp351
I4
asI146
(lp352
I4
asI19
(lp353
I4
asI148
(lp354
I3
asI174
(lp355
I3
aI1
asI151
(lp356
I2
aI5
asI24
(lp357
I2
asI154
(lp358
I3
aI1
asI27
(lp359
I2
aI5
asI28
(lp360
I5
asI30
(lp361
I4
aI2
asI133
(lp362
I3
aI2
asI32
(lp363
I5
asI34
(lp364
I5
aI2
asI35
(lp365
I5
aI2
asI36
(lp366
I2
aI1
asI37
(lp367
I2
asI167
(lp368
I2
aI5
asI168
(lp369
I5
asI170
(lp370
I4
aI5
asI171
(lp371
I5
aI3
asI172
(lp372
I5
aI3
asI173
(lp373
I3
aI1
asI46
(lp374
I2
asI49
(lp375
I2
asI178
(lp376
I3
aI4
asI179
(lp377
I4
asI53
(lp378
I5
asI182
(lp379
I1
aI4
asI55
(lp380
I4
asI57
(lp381
I1
aI4
asI58
(lp382
I4
asI60
(lp383
I3
asI190
(lp384
I4
aI1
asI181
(lp385
I4
aI1
asI192
(lp386
I1
asI160
(lp387
I5
asI66
(lp388
I4
asI68
(lp389
I5
aI2
asI69
(lp390
I2
aI3
asI70
(lp391
I2
asI74
(lp392
I4
asI183
(lp393
I4
asI76
(lp394
I5
aI1
asI77
(lp395
I1
aI5
asI78
(lp396
I5
asI80
(lp397
I2
asI84
(lp398
I5
asI86
(lp399
I2
aI1
asI185
(lp400
I4
aI3
asI164
(lp401
I4
asI152
(lp402
I5
asI93
(lp403
I1
aI5
asI94
(lp404
I1
asI198
(lp405
I1
aI3
asI144
(lp406
I4
aI2
asI97
(lp407
I3
aI2
asI102
(lp408
I3
asI106
(lp409
I3
asI109
(lp410
I4
asI111
(lp411
I4
aI1
asI112
(lp412
I4
aI1
asI114
(lp413
I3
asI118
(lp414
I3
asI121
(lp415
I5
aI3
asI122
(lp416
I3
aI4
asI123
(lp417
I3
asI126
(lp418
I2
asa(dp419
I128
(lp420
I5
asI130
(lp421
I1
aI5
asI131
(lp422
I1
asI4
(lp423
I4
asI6
(lp424
I5
asI8
(lp425
I3
aI4
asI9
(lp426
I3
asI138
(lp427
I3
asI12
(lp428
I3
asI15
(lp429
I5
asI17
(lp430
I5
aI2
asI18
(lp431
I2
aI1
asI19
(lp432
I1
asI22
(lp433
I3
aI1
asI23
(lp434
I1
asI152
(lp435
I4
aI1
asI196
(lp436
I1
asI154
(lp437
I5
asI175
(lp438
I5
asI156
(lp439
I4
asI29
(lp440
I2
aI4
asI159
(lp441
I5
aI3
asI160
(lp442
I3
aI4
asI161
(lp443
I4
asI34
(lp444
I3
aI4
asI35
(lp445
I4
aI5
asI164
(lp446
I5
asI134
(lp447
I3
aI4
asI38
(lp448
I5
aI1
asI39
(lp449
I1
aI2
asI40
(lp450
I2
asI169
(lp451
I2
asI199
(lp452
I3
asI172
(lp453
I5
asI174
(lp454
I2
aI5
asI47
(lp455
I1
aI4
asI177
(lp456
I5
asI179
(lp457
I5
asI181
(lp458
I5
asI137
(lp459
I3
aI1
asI56
(lp460
I1
aI4
asI57
(lp461
I4
asI186
(lp462
I3
aI1
asI59
(lp463
I2
asI62
(lp464
I2
aI1
asI193
(lp465
I5
aI4
asI194
(lp466
I4
aI2
asI195
(lp467
I2
aI1
asI68
(lp468
I3
asI71
(lp469
I5
asI73
(lp470
I5
asI75
(lp471
I4
aI5
asI76
(lp472
I5
aI3
asI77
(lp473
I3
aI5
asI78
(lp474
I5
asI80
(lp475
I3
aI4
asI81
(lp476
I3
aI4
asI163
(lp477
I1
aI5
asI84
(lp478
I1
asI87
(lp479
I3
asI90
(lp480
I1
asI98
(lp481
I3
asI101
(lp482
I2
aI3
asI167
(lp483
I4
asI109
(lp484
I4
asI112
(lp485
I2
aI4
asI113
(lp486
I4
asI119
(lp487
I2
aI1
asI120
(lp488
I1
asI183
(lp489
I1
asI126
(lp490
I4
asI166
(lp491
I3
aI4
asa(dp492
I192
(lp493
I3
aI4
asI132
(lp494
I1
aI2
asI199
(lp495
I4
aI3
asI172
(lp496
I3
asI10
(lp497
I2
asI139
(lp498
I3
aI1
asI140
(lp499
I3
asI14
(lp500
I2
aI5
asI17
(lp501
I5
asI167
(lp502
I5
aI4
asI19
(lp503
I1
asI150
(lp504
I1
aI3
asI24
(lp505
I3
asI196
(lp506
I4
asI156
(lp507
I4
aI2
asI157
(lp508
I2
aI1
asI158
(lp509
I2
asI33
(lp510
I2
asI162
(lp511
I4
aI2
asI164
(lp512
I2
asI39
(lp513
I2
aI3
asI40
(lp514
I3
asI169
(lp515
I5
aI4
asI170
(lp516
I4
aI2
asI171
(lp517
I2
aI3
asI44
(lp518
I2
aI5
asI45
(lp519
I5
asI47
(lp520
I3
asI50
(lp521
I3
asI180
(lp522
I3
aI5
asI181
(lp523
I5
asI54
(lp524
I3
aI5
asI55
(lp525
I5
aI2
asI184
(lp526
I2
aI1
asI57
(lp527
I4
asI59
(lp528
I3
aI5
asI63
(lp529
I3
aI4
asI64
(lp530
I4
asI193
(lp531
I4
asI68
(lp532
I5
aI2
asI70
(lp533
I2
aI4
asI71
(lp534
I2
asI200
(lp535
I3
aI1
asI168
(lp536
I5
aI4
asI74
(lp537
I3
asI183
(lp538
I5
aI2
asI80
(lp539
I2
asI84
(lp540
I3
asI147
(lp541
I1
asI185
(lp542
I2
asI88
(lp543
I5
aI2
asI89
(lp544
I2
aI3
asI90
(lp545
I3
asI94
(lp546
I1
aI2
asI95
(lp547
I1
asI107
(lp548
I3
aI4
asI108
(lp549
I4
aI1
asI111
(lp550
I5
asI113
(lp551
I5
aI4
asI114
(lp552
I4
aI2
asI115
(lp553
I2
aI1
asI116
(lp554
I2
asa(dp555
I3
(lp556
I4
asI135
(lp557
I4
aI1
asI136
(lp558
I1
aI2
asI172
(lp559
I2
aI4
asI10
(lp560
I2
asI194
(lp561
I2
asI142
(lp562
I3
aI4
asI143
(lp563
I4
aI2
asI16
(lp564
I1
asI145
(lp565
I2
asI167
(lp566
I5
asI20
(lp567
I4
asI149
(lp568
I1
aI4
asI154
(lp569
I5
aI2
asI153
(lp570
I5
aI2
asI26
(lp571
I4
asI155
(lp572
I2
aI3
asI156
(lp573
I2
asI29
(lp574
I1
aI5
asI160
(lp575
I5
asI33
(lp576
I1
asI162
(lp577
I3
aI4
asI163
(lp578
I4
aI5
asI36
(lp579
I4
aI5
asI38
(lp580
I2
aI5
asI39
(lp581
I2
asI169
(lp582
I2
asI42
(lp583
I4
asI200
(lp584
I2
asI44
(lp585
I4
asI173
(lp586
I2
asI46
(lp587
I5
aI3
asI47
(lp588
I5
aI3
asI48
(lp589
I3
aI1
asI49
(lp590
I1
aI3
asI178
(lp591
I4
aI5
asI179
(lp592
I5
aI4
asI180
(lp593
I4
aI2
asI181
(lp594
I2
aI3
asI56
(lp595
I4
aI2
asI58
(lp596
I2
asI187
(lp597
I1
asI190
(lp598
I3
asI66
(lp599
I1
aI2
asI67
(lp600
I2
asI197
(lp601
I2
aI5
asI72
(lp602
I4
asI177
(lp603
I5
aI4
asI74
(lp604
I1
asI77
(lp605
I1
asI92
(lp606
I4
aI5
asI94
(lp607
I1
aI2
asI95
(lp608
I1
asI101
(lp609
I5
asI103
(lp610
I5
asI105
(lp611
I5
asI107
(lp612
I5
asI109
(lp613
I5
aI3
asI110
(lp614
I3
aI1
asI111
(lp615
I1
aI5
asI114
(lp616
I1
asI166
(lp617
I2
aI5
asI126
(lp618
I3
aI2
asI127
(lp619
I2
asa(dp620
I3
(lp621
I3
asI133
(lp622
I3
asI193
(lp623
I1
asI136
(lp624
I2
aI5
asI9
(lp625
I4
asI11
(lp626
I2
asI141
(lp627
I5
aI3
asI142
(lp628
I3
aI1
asI143
(lp629
I1
asI16
(lp630
I4
aI2
asI18
(lp631
I4
asI20
(lp632
I2
asI23
(lp633
I3
aI1
asI24
(lp634
I1
asI30
(lp635
I5
asI32
(lp636
I1
aI2
asI33
(lp637
I2
asI162
(lp638
I5
asI164
(lp639
I3
aI5
asI139
(lp640
I4
asI39
(lp641
I3
asI169
(lp642
I4
asI44
(lp643
I1
asI151
(lp644
I1
asI174
(lp645
I1
aI4
asI175
(lp646
I4
asI177
(lp647
I3
asI52
(lp648
I2
asI137
(lp649
I5
asI184
(lp650
I5
asI186
(lp651
I4
aI5
asI187
(lp652
I5
aI1
asI60
(lp653
I3
asI189
(lp654
I3
asI160
(lp655
I5
aI1
asI66
(lp656
I1
aI4
asI67
(lp657
I4
asI69
(lp658
I2
aI4
asI70
(lp659
I4
asI75
(lp660
I4
aI1
asI77
(lp661
I2
asI80
(lp662
I3
aI5
asI84
(lp663
I1
aI4
asI87
(lp664
I3
asI165
(lp665
I3
aI5
asI96
(lp666
I4
asI98
(lp667
I3
aI4
asI99
(lp668
I4
asI101
(lp669
I4
asI103
(lp670
I2
asI106
(lp671
I2
asI109
(lp672
I4
asI111
(lp673
I5
asI113
(lp674
I1
asI116
(lp675
I5
asI118
(lp676
I4
aI1
asI119
(lp677
I1
aI2
asI126
(lp678
I1
asa(dp679
I128
(lp680
I5
aI1
asI129
(lp681
I1
aI5
asI2
(lp682
I1
aI3
asI132
(lp683
I5
aI2
asI133
(lp684
I5
aI2
asI134
(lp685
I2
aI4
asI135
(lp686
I4
asI8
(lp687
I1
aI5
asI9
(lp688
I5
asI11
(lp689
I2
aI4
asI140
(lp690
I2
asI130
(lp691
I5
asI194
(lp692
I1
aI2
asI15
(lp693
I4
asI17
(lp694
I1
aI4
asI147
(lp695
I3
aI4
asI20
(lp696
I5
aI4
asI21
(lp697
I4
aI1
asI22
(lp698
I1
aI5
asI150
(lp699
I3
aI4
asI137
(lp700
I3
asI27
(lp701
I2
asI30
(lp702
I3
asI162
(lp703
I4
aI1
asI163
(lp704
I1
aI3
asI36
(lp705
I2
asI42
(lp706
I3
aI5
asI171
(lp707
I2
aI4
asI45
(lp708
I3
asI174
(lp709
I3
aI2
asI51
(lp710
I1
asI180
(lp711
I3
asI54
(lp712
I3
aI2
asI55
(lp713
I3
asI185
(lp714
I5
aI3
asI186
(lp715
I3
aI4
asI187
(lp716
I4
asI151
(lp717
I3
aI4
asI189
(lp718
I5
aI4
asI190
(lp719
I4
aI1
asI191
(lp720
I1
aI5
asI192
(lp721
I5
asI66
(lp722
I3
aI2
asI67
(lp723
I2
asI199
(lp724
I2
aI1
asI72
(lp725
I2
asI79
(lp726
I2
aI3
asI80
(lp727
I3
asI83
(lp728
I4
aI1
asI96
(lp729
I1
asI195
(lp730
I2
asI105
(lp731
I3
asI111
(lp732
I4
aI3
asI112
(lp733
I3
aI4
asI113
(lp734
I4
asI116
(lp735
I2
asI120
(lp736
I3
aI5
asI148
(lp737
I4
asI123
(lp738
I5
asI125
(lp739
I3
aI5
asI126
(lp740
I5
asa(dp741
I130
(lp742
I2
aI5
asI171
(lp743
I3
aI4
asI133
(lp744
I1
asI6
(lp745
I2
asI10
(lp746
I1
aI5
asI11
(lp747
I5
asI13
(lp748
I4
aI1
asI14
(lp749
I4
aI1
asI144
(lp750
I4
aI3
asI145
(lp751
I4
aI3
asI147
(lp752
I1
aI5
asI174
(lp753
I3
aI4
asI152
(lp754
I5
aI1
asI153
(lp755
I1
aI4
asI26
(lp756
I4
aI3
asI154
(lp757
I4
asI158
(lp758
I5
asI160
(lp759
I3
asI33
(lp760
I5
aI4
asI34
(lp761
I4
aI2
asI35
(lp762
I2
aI1
asI36
(lp763
I2
asI163
(lp764
I4
aI5
asI166
(lp765
I5
aI2
asI167
(lp766
I2
aI4
asI168
(lp767
I4
asI41
(lp768
I5
asI170
(lp769
I5
aI3
asI43
(lp770
I5
asI172
(lp771
I4
asI45
(lp772
I1
aI2
asI46
(lp773
I2
asI175
(lp774
I4
aI2
asI49
(lp775
I5
asI51
(lp776
I1
asI55
(lp777
I1
asI184
(lp778
I2
aI4
asI185
(lp779
I4
asI59
(lp780
I1
aI2
asI60
(lp781
I2
asI190
(lp782
I4
asI192
(lp783
I4
asI65
(lp784
I3
asI164
(lp785
I4
aI5
asI197
(lp786
I4
asI70
(lp787
I4
asI200
(lp788
I1
asI183
(lp789
I4
aI2
asI77
(lp790
I2
aI5
asI78
(lp791
I5
asI80
(lp792
I2
asI83
(lp793
I1
aI5
asI86
(lp794
I2
asI89
(lp795
I2
asI165
(lp796
I4
aI5
asI99
(lp797
I3
asI102
(lp798
I1
asI105
(lp799
I2
aI1
asI106
(lp800
I1
asI109
(lp801
I1
aI5
asI110
(lp802
I5
asI112
(lp803
I4
aI3
asI113
(lp804
I3
aI1
asI187
(lp805
I3
aI5
asI118
(lp806
I4
asI120
(lp807
I5
asI122
(lp808
I2
aI1
asI126
(lp809
I2
asa(dp810
I128
(lp811
I4
aI5
asI192
(lp812
I3
asI132
(lp813
I3
aI5
asI131
(lp814
I4
aI3
asI4
(lp815
I4
aI3
asI5
(lp816
I3
aI4
asI136
(lp817
I3
aI2
asI137
(lp818
I2
aI4
asI12
(lp819
I5
asI141
(lp820
I1
aI4
asI14
(lp821
I4
asI173
(lp822
I1
asI16
(lp823
I3
asI145
(lp824
I5
aI3
asI146
(lp825
I5
aI3
asI19
(lp826
I1
asI148
(lp827
I4
aI2
asI171
(lp828
I5
aI2
asI22
(lp829
I1
aI5
asI25
(lp830
I1
aI3
asI26
(lp831
I3
asI155
(lp832
I3
aI4
asI156
(lp833
I4
aI1
asI150
(lp834
I1
asI133
(lp835
I3
asI33
(lp836
I1
asI36
(lp837
I3
asI166
(lp838
I1
asI170
(lp839
I4
aI5
asI43
(lp840
I5
aI4
asI44
(lp841
I4
aI2
asI45
(lp842
I2
aI4
asI49
(lp843
I1
aI2
asI50
(lp844
I2
asI179
(lp845
I2
asI55
(lp846
I1
aI5
asI58
(lp847
I3
asI190
(lp848
I4
aI1
asI64
(lp849
I3
asI68
(lp850
I2
asI161
(lp851
I2
asI200
(lp852
I3
asI183
(lp853
I2
asI78
(lp854
I5
asI80
(lp855
I5
asI82
(lp856
I1
asI85
(lp857
I1
aI2
asI86
(lp858
I2
asI89
(lp859
I2
asI199
(lp860
I2
aI3
asI95
(lp861
I3
aI1
asI96
(lp862
I1
aI2
asI144
(lp863
I4
aI5
asI100
(lp864
I4
aI2
asI101
(lp865
I2
aI3
asI196
(lp866
I3
asI108
(lp867
I1
aI2
asI109
(lp868
I2
asI112
(lp869
I5
asI114
(lp870
I4
aI2
asI147
(lp871
I3
aI4
asI116
(lp872
I2
aI4
asI117
(lp873
I2
asI121
(lp874
I1
aI5
asI122
(lp875
I5
asI124
(lp876
I2
asa(dp877
I5
(lp878
I3
asI134
(lp879
I1
aI4
asI137
(lp880
I3
asI11
(lp881
I1
aI2
asI16
(lp882
I5
aI4
asI17
(lp883
I5
aI4
asI18
(lp884
I4
aI5
asI19
(lp885
I5
aI4
asI20
(lp886
I4
aI2
asI21
(lp887
I2
aI5
asI22
(lp888
I5
asI24
(lp889
I4
asI26
(lp890
I3
aI2
asI155
(lp891
I1
aI3
asI156
(lp892
I3
asI197
(lp893
I5
aI3
asI160
(lp894
I5
asI33
(lp895
I5
aI4
asI34
(lp896
I4
aI3
asI35
(lp897
I3
aI4
asI36
(lp898
I4
aI1
asI198
(lp899
I5
aI3
asI38
(lp900
I4
asI167
(lp901
I3
asI40
(lp902
I1
asI172
(lp903
I4
asI174
(lp904
I5
aI3
asI176
(lp905
I5
aI3
asI200
(lp906
I4
asI178
(lp907
I3
asI182
(lp908
I1
aI3
asI183
(lp909
I1
asI57
(lp910
I4
asI59
(lp911
I1
aI5
asI60
(lp912
I1
asI190
(lp913
I1
asI63
(lp914
I4
aI1
asI64
(lp915
I1
aI3
asI195
(lp916
I4
asI68
(lp917
I5
aI2
asI69
(lp918
I2
aI5
asI70
(lp919
I5
asI199
(lp920
I3
aI4
asI72
(lp921
I4
asI74
(lp922
I5
asI76
(lp923
I4
aI2
asI162
(lp924
I1
aI2
asI78
(lp925
I4
asI84
(lp926
I2
asI147
(lp927
I2
asI88
(lp928
I2
asI187
(lp929
I2
aI5
asI100
(lp930
I2
asI145
(lp931
I5
asI108
(lp932
I2
asI112
(lp933
I3
aI4
asI115
(lp934
I1
asI119
(lp935
I2
aI4
asI120
(lp936
I4
asI122
(lp937
I2
aI3
asI123
(lp938
I3
asa(dp939
I130
(lp940
I2
asI3
(lp941
I2
aI4
asI6
(lp942
I4
asI193
(lp943
I4
aI5
asI8
(lp944
I2
asI137
(lp945
I4
asI11
(lp946
I2
asI14
(lp947
I1
aI3
asI144
(lp948
I3
aI1
asI195
(lp949
I3
aI5
asI151
(lp950
I1
aI4
asI152
(lp951
I4
asI25
(lp952
I5
asI154
(lp953
I3
aI1
asI27
(lp954
I4
asI30
(lp955
I1
aI3
asI31
(lp956
I3
asI160
(lp957
I5
aI1
asI161
(lp958
I5
aI1
asI162
(lp959
I1
aI4
asI155
(lp960
I1
aI5
asI37
(lp961
I1
aI3
asI42
(lp962
I1
aI5
asI172
(lp963
I3
asI45
(lp964
I2
asI176
(lp965
I4
asI49
(lp966
I3
asI178
(lp967
I1
aI5
asI158
(lp968
I5
asI54
(lp969
I3
aI1
asI183
(lp970
I5
aI2
asI184
(lp971
I5
aI2
asI185
(lp972
I2
aI3
asI186
(lp973
I3
asI190
(lp974
I1
asI63
(lp975
I1
aI4
asI64
(lp976
I1
asI181
(lp977
I5
asI194
(lp978
I5
aI3
asI67
(lp979
I1
aI4
asI196
(lp980
I5
aI3
asI70
(lp981
I3
aI2
asI71
(lp982
I2
asI200
(lp983
I3
asI75
(lp984
I2
asI163
(lp985
I4
asI139
(lp986
I4
asI85
(lp987
I2
aI5
asI88
(lp988
I2
asI198
(lp989
I5
asI95
(lp990
I2
asI165
(lp991
I1
asI99
(lp992
I4
asI101
(lp993
I3
asI105
(lp994
I3
aI5
asI106
(lp995
I5
aI2
asI108
(lp996
I2
asI111
(lp997
I4
aI2
asI113
(lp998
I5
asI115
(lp999
I2
aI5
asI118
(lp1000
I2
asI124
(lp1001
I2
asa(dp1002
I129
(lp1003
I3
aI5
asI3
(lp1004
I5
aI2
asI4
(lp1005
I5
aI2
asI5
(lp1006
I2
aI4
asI6
(lp1007
I2
asI136
(lp1008
I4
asI9
(lp1009
I2
asI139
(lp1010
I3
aI4
asI13
(lp1011
I4
aI2
asI14
(lp1012
I2
aI5
asI15
(lp1013
I5
asI17
(lp1014
I2
aI3
asI134
(lp1015
I4
asI174
(lp1016
I1
asI153
(lp1017
I5
asI152
(lp1018
I2
aI5
asI132
(lp1019
I4
asI26
(lp1020
I3
aI5
asI155
(lp1021
I4
aI3
asI156
(lp1022
I3
aI2
asI29
(lp1023
I3
aI5
asI30
(lp1024
I5
asI197
(lp1025
I4
asI32
(lp1026
I1
asI162
(lp1027
I5
asI36
(lp1028
I4
aI2
asI37
(lp1029
I2
aI3
asI38
(lp1030
I3
asI41
(lp1031
I1
asI170
(lp1032
I4
aI3
asI171
(lp1033
I3
aI5
asI172
(lp1034
I5
aI2
asI46
(lp1035
I3
aI1
asI177
(lp1036
I3
asI51
(lp1037
I2
asI181
(lp1038
I3
asI55
(lp1039
I5
asI57
(lp1040
I3
asI61
(lp1041
I3
aI1
asI62
(lp1042
I1
asI191
(lp1043
I2
aI5
asI192
(lp1044
I5
asI194
(lp1045
I2
asI67
(lp1046
I4
aI2
asI68
(lp1047
I2
aI1
asI69
(lp1048
I1
asI199
(lp1049
I4
aI3
asI72
(lp1050
I1
aI3
asI73
(lp1051
I3
asI77
(lp1052
I1
asI80
(lp1053
I3
aI4
asI83
(lp1054
I4
aI2
asI85
(lp1055
I1
asI164
(lp1056
I4
aI1
asI143
(lp1057
I2
asI94
(lp1058
I2
aI5
asI165
(lp1059
I1
aI4
asI97
(lp1060
I5
aI1
asI98
(lp1061
I5
aI1
asI99
(lp1062
I1
aI4
asI100
(lp1063
I4
asI166
(lp1064
I4
asI102
(lp1065
I2
asI108
(lp1066
I5
asI110
(lp1067
I2
aI4
asI111
(lp1068
I2
asI115
(lp1069
I1
asI119
(lp1070
I1
aI5
asI120
(lp1071
I5
asI122
(lp1072
I2
aI5
asI200
(lp1073
I3
aI1
asI125
(lp1074
I1
asa(dp1075
I129
(lp1076
I2
aI3
asI130
(lp1077
I3
asI171
(lp1078
I1
aI5
asI133
(lp1079
I1
aI2
asI134
(lp1080
I2
asI9
(lp1081
I4
asI138
(lp1082
I2
asI11
(lp1083
I2
aI5
asI12
(lp1084
I5
asI14
(lp1085
I4
aI1
asI15
(lp1086
I1
aI3
asI16
(lp1087
I3
asI149
(lp1088
I4
asI24
(lp1089
I3
asI153
(lp1090
I2
aI3
asI154
(lp1091
I3
asI175
(lp1092
I5
aI1
asI28
(lp1093
I1
asI157
(lp1094
I4
aI5
asI158
(lp1095
I4
aI5
asI31
(lp1096
I4
aI3
asI32
(lp1097
I3
aI2
asI33
(lp1098
I2
aI1
asI162
(lp1099
I4
aI3
asI165
(lp1100
I2
aI3
asI40
(lp1101
I1
aI5
asI41
(lp1102
I5
asI170
(lp1103
I5
aI1
asI43
(lp1104
I5
asI172
(lp1105
I1
asI45
(lp1106
I4
asI47
(lp1107
I4
asI176
(lp1108
I5
aI1
asI177
(lp1109
I5
aI1
asI178
(lp1110
I1
aI4
asI179
(lp1111
I1
asI183
(lp1112
I5
asI185
(lp1113
I2
asI61
(lp1114
I4
aI5
asI62
(lp1115
I5
aI2
asI64
(lp1116
I1
asI194
(lp1117
I4
aI3
asI195
(lp1118
I3
aI4
asI196
(lp1119
I4
asI198
(lp1120
I5
asI71
(lp1121
I4
asI200
(lp1122
I1
asI73
(lp1123
I4
aI1
asI74
(lp1124
I1
aI4
asI75
(lp1125
I4
asI82
(lp1126
I1
asI88
(lp1127
I1
asI143
(lp1128
I2
aI4
asI93
(lp1129
I3
aI1
asI94
(lp1130
I1
aI2
asI161
(lp1131
I3
aI4
asI102
(lp1132
I5
asI104
(lp1133
I3
aI2
asI105
(lp1134
I2
asI109
(lp1135
I5
aI2
asI110
(lp1136
I2
aI3
asI111
(lp1137
I3
asI119
(lp1138
I3
asa(dp1139
I149
(lp1140
I3
aI4
asI2
(lp1141
I1
aI2
asI131
(lp1142
I2
aI3
asI132
(lp1143
I2
asI7
(lp1144
I3
asI11
(lp1145
I3
aI5
asI12
(lp1146
I5
asI141
(lp1147
I3
asI14
(lp1148
I5
asI16
(lp1149
I1
aI4
asI17
(lp1150
I4
asI19
(lp1151
I5
aI2
asI21
(lp1152
I3
asI150
(lp1153
I4
asI24
(lp1154
I2
aI1
asI28
(lp1155
I5
asI30
(lp1156
I5
asI159
(lp1157
I5
aI1
asI32
(lp1158
I5
aI1
asI33
(lp1159
I1
aI2
asI34
(lp1160
I2
asI163
(lp1161
I1
aI3
asI164
(lp1162
I3
asI38
(lp1163
I5
asI167
(lp1164
I4
asI40
(lp1165
I4
asI156
(lp1166
I3
asI42
(lp1167
I2
aI3
asI43
(lp1168
I3
asI46
(lp1169
I2
aI4
asI50
(lp1170
I4
asI180
(lp1171
I3
aI1
asI181
(lp1172
I1
asI184
(lp1173
I4
asI57
(lp1174
I2
asI186
(lp1175
I1
aI4
asI140
(lp1176
I3
aI1
asI60
(lp1177
I2
aI1
asI189
(lp1178
I2
asI64
(lp1179
I3
asI152
(lp1180
I2
asI69
(lp1181
I1
asI161
(lp1182
I5
asI72
(lp1183
I1
aI3
asI73
(lp1184
I3
asI76
(lp1185
I4
asI78
(lp1186
I3
aI2
asI79
(lp1187
I2
aI1
asI87
(lp1188
I5
aI1
asI89
(lp1189
I5
aI1
asI90
(lp1190
I1
aI5
asI91
(lp1191
I5
asI93
(lp1192
I4
asI199
(lp1193
I2
asI95
(lp1194
I4
aI3
asI96
(lp1195
I3
aI1
asI187
(lp1196
I4
asI171
(lp1197
I1
asI107
(lp1198
I2
asI114
(lp1199
I2
aI1
asI115
(lp1200
I2
asI121
(lp1201
I3
aI5
asI124
(lp1202
I3
asI170
(lp1203
I3
aI1
asI127
(lp1204
I4
aI2
asa(dp1205
I129
(lp1206
I2
aI3
asI130
(lp1207
I3
asI178
(lp1208
I3
aI2
asI179
(lp1209
I2
aI1
asI134
(lp1210
I1
aI5
asI7
(lp1211
I4
asI9
(lp1212
I5
aI2
asI10
(lp1213
I5
aI2
asI11
(lp1214
I2
aI4
asI12
(lp1215
I2
asI15
(lp1216
I2
aI4
asI145
(lp1217
I1
asI18
(lp1218
I5
aI2
asI19
(lp1219
I2
aI1
asI20
(lp1220
I2
asI149
(lp1221
I5
asI151
(lp1222
I3
aI1
asI24
(lp1223
I4
asI26
(lp1224
I3
aI5
asI155
(lp1225
I5
aI1
asI156
(lp1226
I5
aI1
asI157
(lp1227
I1
aI5
asI30
(lp1228
I2
aI1
asI160
(lp1229
I2
asI35
(lp1230
I4
asI37
(lp1231
I1
aI2
asI166
(lp1232
I5
aI4
asI167
(lp1233
I4
aI3
asI168
(lp1234
I3
aI1
asI41
(lp1235
I3
asI135
(lp1236
I5
asI173
(lp1237
I5
asI46
(lp1238
I3
aI2
asI175
(lp1239
I2
asI50
(lp1240
I3
aI1
asI51
(lp1241
I1
aI4
asI158
(lp1242
I5
asI137
(lp1243
I1
aI2
asI187
(lp1244
I1
asI60
(lp1245
I4
aI5
asI138
(lp1246
I2
asI62
(lp1247
I4
aI3
asI63
(lp1248
I3
aI5
asI64
(lp1249
I5
aI1
asI66
(lp1250
I4
asI68
(lp1251
I3
aI5
asI69
(lp1252
I5
asI71
(lp1253
I3
asI200
(lp1254
I4
aI2
asI76
(lp1255
I2
asI79
(lp1256
I1
asI82
(lp1257
I1
aI3
asI88
(lp1258
I3
aI1
asI152
(lp1259
I1
aI4
asI95
(lp1260
I3
aI4
asI96
(lp1261
I3
asI148
(lp1262
I2
aI5
asI102
(lp1263
I1
aI4
asI103
(lp1264
I1
asI106
(lp1265
I4
aI2
asI107
(lp1266
I2
aI1
asI108
(lp1267
I1
asI111
(lp1268
I4
aI5
asI112
(lp1269
I4
aI5
asI113
(lp1270
I5
aI3
asI114
(lp1271
I3
aI5
asI115
(lp1272
I5
aI2
asI117
(lp1273
I1
asI169
(lp1274
I1
asI120
(lp1275
I4
aI1
asI121
(lp1276
I1
aI2
asI122
(lp1277
I2
asI191
(lp1278
I2
aI1
asa(dp1279
I128
(lp1280
I1
aI4
asI129
(lp1281
I4
asI2
(lp1282
I1
asI131
(lp1283
I3
aI1
asI150
(lp1284
I1
aI4
asI142
(lp1285
I5
asI144
(lp1286
I4
asI18
(lp1287
I3
aI1
asI19
(lp1288
I1
asI148
(lp1289
I5
aI3
asI22
(lp1290
I2
aI4
asI23
(lp1291
I4
asI153
(lp1292
I2
aI4
asI27
(lp1293
I4
aI5
asI28
(lp1294
I5
aI2
asI29
(lp1295
I2
aI3
asI30
(lp1296
I3
asI33
(lp1297
I2
aI1
asI34
(lp1298
I1
asI39
(lp1299
I3
asI168
(lp1300
I2
aI5
asI156
(lp1301
I2
aI1
asI172
(lp1302
I3
asI47
(lp1303
I5
aI2
asI48
(lp1304
I2
aI1
asI49
(lp1305
I1
asI54
(lp1306
I1
asI169
(lp1307
I2
asI184
(lp1308
I3
asI59
(lp1309
I2
asI62
(lp1310
I2
asI191
(lp1311
I1
asI65
(lp1312
I1
aI3
asI66
(lp1313
I1
asI199
(lp1314
I1
asI177
(lp1315
I1
asI80
(lp1316
I1
aI4
asI81
(lp1317
I4
asI88
(lp1318
I3
aI5
asI89
(lp1319
I3
aI5
asI92
(lp1320
I3
asI96
(lp1321
I2
aI1
asI101
(lp1322
I2
asI106
(lp1323
I5
aI4
asI107
(lp1324
I4
aI2
asI108
(lp1325
I4
aI2
asI110
(lp1326
I3
asI157
(lp1327
I1
asI116
(lp1328
I3
asI119
(lp1329
I5
aI2
asI121
(lp1330
I3
asa(dp1331
I128
(lp1332
I1
aI2
asI129
(lp1333
I2
asI3
(lp1334
I3
aI1
asI4
(lp1335
I1
aI3
asI179
(lp1336
I4
asI134
(lp1337
I4
asI193
(lp1338
I4
aI3
asI8
(lp1339
I2
asI11
(lp1340
I2
asI194
(lp1341
I3
aI4
asI15
(lp1342
I3
asI145
(lp1343
I5
asI19
(lp1344
I1
asI150
(lp1345
I1
aI5
asI151
(lp1346
I5
asI132
(lp1347
I5
asI26
(lp1348
I4
asI155
(lp1349
I5
asI28
(lp1350
I1
asI157
(lp1351
I2
asI32
(lp1352
I2
aI1
asI33
(lp1353
I2
asI163
(lp1354
I1
asI198
(lp1355
I3
aI4
asI168
(lp1356
I4
asI170
(lp1357
I1
asI48
(lp1358
I4
aI5
asI49
(lp1359
I5
aI3
asI50
(lp1360
I3
aI2
asI51
(lp1361
I2
aI1
asI182
(lp1362
I4
asI184
(lp1363
I3
asI58
(lp1364
I1
aI5
asI59
(lp1365
I5
asI61
(lp1366
I4
asI190
(lp1367
I2
asI65
(lp1368
I3
aI4
asI66
(lp1369
I4
aI1
asI68
(lp1370
I4
asI70
(lp1371
I3
asI199
(lp1372
I4
aI3
asI75
(lp1373
I2
asI99
(lp1374
I3
aI1
asI106
(lp1375
I2
aI4
asI107
(lp1376
I2
asI111
(lp1377
I2
asI114
(lp1378
I5
asI147
(lp1379
I2
asI116
(lp1380
I5
asI118
(lp1381
I1
asI153
(lp1382
I4
asI136
(lp1383
I3
aI4
asI123
(lp1384
I3
aI5
asI124
(lp1385
I5
aI3
asI126
(lp1386
I5
aI4
asa(dp1387
I129
(lp1388
I1
aI3
asI2
(lp1389
I3
aI2
asI3
(lp1390
I3
aI2
asI134
(lp1391
I2
aI3
asI138
(lp1392
I1
aI3
asI11
(lp1393
I2
asI130
(lp1394
I3
asI15
(lp1395
I5
aI4
asI16
(lp1396
I4
aI1
asI17
(lp1397
I1
aI2
asI146
(lp1398
I1
aI3
asI23
(lp1399
I1
asI26
(lp1400
I5
asI156
(lp1401
I1
aI4
asI28
(lp1402
I3
asI159
(lp1403
I4
aI1
asI160
(lp1404
I4
aI1
asI161
(lp1405
I1
aI3
asI162
(lp1406
I3
asI35
(lp1407
I4
asI37
(lp1408
I5
asI166
(lp1409
I4
asI39
(lp1410
I4
aI3
asI40
(lp1411
I4
aI3
asI41
(lp1412
I3
aI4
asI42
(lp1413
I4
aI1
asI44
(lp1414
I3
asI47
(lp1415
I5
asI49
(lp1416
I3
aI2
asI50
(lp1417
I2
asI179
(lp1418
I4
asI55
(lp1419
I1
asI184
(lp1420
I4
asI186
(lp1421
I3
aI1
asI59
(lp1422
I3
aI4
asI60
(lp1423
I3
asI190
(lp1424
I2
aI5
asI191
(lp1425
I2
asI64
(lp1426
I4
asI175
(lp1427
I3
asI139
(lp1428
I1
asI198
(lp1429
I3
aI4
asI199
(lp1430
I4
asI72
(lp1431
I3
asI183
(lp1432
I2
aI4
asI78
(lp1433
I2
aI4
asI79
(lp1434
I4
asI81
(lp1435
I5
aI3
asI82
(lp1436
I5
aI3
asI83
(lp1437
I3
aI5
asI84
(lp1438
I5
asI86
(lp1439
I3
aI5
asI87
(lp1440
I5
aI3
asI89
(lp1441
I2
asI93
(lp1442
I1
asI96
(lp1443
I3
aI5
asI97
(lp1444
I5
asI99
(lp1445
I2
asI194
(lp1446
I1
asI107
(lp1447
I4
aI3
asI108
(lp1448
I3
aI2
asI109
(lp1449
I2
asI112
(lp1450
I4
aI1
asI168
(lp1451
I4
asI114
(lp1452
I2
asI117
(lp1453
I5
aI4
asI118
(lp1454
I4
aI3
asI119
(lp1455
I3
aI5
asI123
(lp1456
I3
asI170
(lp1457
I1
asI127
(lp1458
I4
asa(dp1459
I128
(lp1460
I3
aI2
asI129
(lp1461
I2
asI5
(lp1462
I5
asI7
(lp1463
I4
asI137
(lp1464
I1
aI3
asI10
(lp1465
I5
aI4
asI11
(lp1466
I4
aI1
asI12
(lp1467
I1
aI5
asI13
(lp1468
I5
asI15
(lp1469
I2
aI1
asI145
(lp1470
I4
asI19
(lp1471
I5
aI4
asI148
(lp1472
I2
aI3
asI21
(lp1473
I5
aI3
asI22
(lp1474
I3
aI4
asI23
(lp1475
I4
aI2
asI25
(lp1476
I2
aI5
asI154
(lp1477
I1
aI2
asI155
(lp1478
I2
asI28
(lp1479
I4
asI30
(lp1480
I4
aI1
asI31
(lp1481
I1
aI5
asI160
(lp1482
I3
aI2
asI161
(lp1483
I2
aI5
asI34
(lp1484
I1
aI3
asI35
(lp1485
I1
asI164
(lp1486
I1
aI2
asI40
(lp1487
I3
aI4
asI169
(lp1488
I4
aI5
asI171
(lp1489
I5
aI1
asI172
(lp1490
I1
aI3
asI45
(lp1491
I2
asI176
(lp1492
I2
aI4
asI177
(lp1493
I4
asI53
(lp1494
I1
aI5
asI56
(lp1495
I3
asI186
(lp1496
I3
asI60
(lp1497
I3
aI1
asI61
(lp1498
I3
aI1
asI192
(lp1499
I5
asI65
(lp1500
I3
asI194
(lp1501
I5
aI1
asI195
(lp1502
I5
aI1
asI196
(lp1503
I1
aI3
asI197
(lp1504
I1
asI74
(lp1505
I2
aI4
asI77
(lp1506
I3
asI189
(lp1507
I3
aI4
asI80
(lp1508
I3
aI5
asI81
(lp1509
I5
asI173
(lp1510
I3
asI83
(lp1511
I3
asI87
(lp1512
I3
aI4
asI88
(lp1513
I4
asI90
(lp1514
I2
aI4
asI93
(lp1515
I4
aI5
asI94
(lp1516
I5
aI1
asI96
(lp1517
I3
asI102
(lp1518
I2
asI106
(lp1519
I1
asI111
(lp1520
I2
asI118
(lp1521
I5
aI1
asI119
(lp1522
I1
aI2
asI120
(lp1523
I2
asI123
(lp1524
I2
asI149
(lp1525
I3
asa(dp1526
I128
(lp1527
I4
asI130
(lp1528
I3
asI135
(lp1529
I4
asI137
(lp1530
I3
aI2
asI11
(lp1531
I3
asI194
(lp1532
I1
aI4
asI14
(lp1533
I1
asI144
(lp1534
I3
aI4
asI17
(lp1535
I4
aI5
asI147
(lp1536
I4
aI2
asI148
(lp1537
I2
aI5
asI21
(lp1538
I4
asI23
(lp1539
I3
asI154
(lp1540
I2
asI30
(lp1541
I3
aI4
asI37
(lp1542
I1
asI166
(lp1543
I1
aI3
asI177
(lp1544
I1
aI5
asI44
(lp1545
I2
asI173
(lp1546
I5
asI175
(lp1547
I5
asI49
(lp1548
I2
aI1
asI180
(lp1549
I2
asI53
(lp1550
I5
aI2
asI54
(lp1551
I2
aI3
asI55
(lp1552
I3
asI184
(lp1553
I4
asI58
(lp1554
I5
aI1
asI60
(lp1555
I5
asI62
(lp1556
I3
asI191
(lp1557
I1
aI5
asI66
(lp1558
I5
aI3
asI67
(lp1559
I5
aI3
asI68
(lp1560
I5
aI3
asI69
(lp1561
I3
aI5
asI70
(lp1562
I5
aI4
asI158
(lp1563
I3
asI72
(lp1564
I2
aI5
asI73
(lp1565
I5
asI75
(lp1566
I1
asI81
(lp1567
I2
aI1
asI82
(lp1568
I1
asI142
(lp1569
I5
asI88
(lp1570
I3
asI91
(lp1571
I2
asI186
(lp1572
I4
asI94
(lp1573
I5
aI4
asI95
(lp1574
I4
aI3
asI96
(lp1575
I3
aI4
asI97
(lp1576
I4
asI99
(lp1577
I4
aI2
asI100
(lp1578
I2
aI3
asI188
(lp1579
I1
asI145
(lp1580
I4
asI105
(lp1581
I3
aI5
asI108
(lp1582
I4
asI113
(lp1583
I5
asI115
(lp1584
I3
asI123
(lp1585
I2
asI200
(lp1586
I4
asI126
(lp1587
I5
asI195
(lp1588
I1
asa(dp1589
I149
(lp1590
I5
aI2
asI129
(lp1591
I4
asI2
(lp1592
I4
asI171
(lp1593
I2
asI4
(lp1594
I4
asI6
(lp1595
I4
aI3
asI7
(lp1596
I3
aI5
asI8
(lp1597
I5
asI137
(lp1598
I1
asI10
(lp1599
I1
aI3
asI11
(lp1600
I3
asI175
(lp1601
I5
aI2
asI14
(lp1602
I3
aI2
asI15
(lp1603
I2
asI144
(lp1604
I4
asI18
(lp1605
I4
asI20
(lp1606
I1
aI2
asI21
(lp1607
I2
asI151
(lp1608
I2
asI27
(lp1609
I2
aI5
asI28
(lp1610
I5
asI30
(lp1611
I1
asI160
(lp1612
I1
aI5
asI161
(lp1613
I1
asI34
(lp1614
I5
aI2
asI35
(lp1615
I5
aI2
asI36
(lp1616
I2
aI4
asI37
(lp1617
I4
asI166
(lp1618
I2
asI39
(lp1619
I1
aI3
asI40
(lp1620
I3
asI156
(lp1621
I3
aI2
asI170
(lp1622
I2
aI5
asI135
(lp1623
I5
aI2
asI46
(lp1624
I1
aI3
asI47
(lp1625
I3
asI136
(lp1626
I2
aI1
asI50
(lp1627
I3
aI2
asI51
(lp1628
I2
aI4
asI181
(lp1629
I2
asI184
(lp1630
I3
aI2
asI185
(lp1631
I2
aI1
asI59
(lp1632
I3
asI62
(lp1633
I1
asI67
(lp1634
I2
asI197
(lp1635
I2
aI4
asI198
(lp1636
I4
asI200
(lp1637
I3
aI2
asI177
(lp1638
I4
asI74
(lp1639
I5
asI76
(lp1640
I5
aI3
asI77
(lp1641
I3
aI2
asI78
(lp1642
I3
aI2
asI142
(lp1643
I5
asI87
(lp1644
I4
aI1
asI88
(lp1645
I1
aI2
asI93
(lp1646
I4
asI165
(lp1647
I2
aI4
asI96
(lp1648
I2
asI99
(lp1649
I4
asI101
(lp1650
I1
asI106
(lp1651
I3
aI5
asI107
(lp1652
I5
aI2
asI109
(lp1653
I3
asI114
(lp1654
I5
asI116
(lp1655
I4
aI1
asI190
(lp1656
I3
asI118
(lp1657
I5
asI120
(lp1658
I1
aI3
asI121
(lp1659
I1
asI127
(lp1660
I4
asa(dp1661
I4
(lp1662
I2
asI133
(lp1663
I2
aI3
asI134
(lp1664
I3
asI172
(lp1665
I1
asI10
(lp1666
I3
aI4
asI11
(lp1667
I4
aI5
asI13
(lp1668
I5
aI1
asI15
(lp1669
I2
asI144
(lp1670
I1
asI20
(lp1671
I1
aI3
asI153
(lp1672
I4
aI5
asI154
(lp1673
I5
aI2
asI155
(lp1674
I2
aI5
asI156
(lp1675
I5
asI158
(lp1676
I5
aI1
asI159
(lp1677
I1
aI5
asI32
(lp1678
I1
asI162
(lp1679
I1
aI5
asI35
(lp1680
I3
asI165
(lp1681
I1
aI4
asI166
(lp1682
I4
asI168
(lp1683
I4
aI1
asI169
(lp1684
I1
aI5
asI170
(lp1685
I5
asI44
(lp1686
I1
asI175
(lp1687
I1
asI48
(lp1688
I3
aI2
asI181
(lp1689
I2
aI1
asI182
(lp1690
I2
asI58
(lp1691
I4
aI2
asI59
(lp1692
I2
aI1
asI60
(lp1693
I1
asI63
(lp1694
I1
asI160
(lp1695
I5
asI196
(lp1696
I1
asI199
(lp1697
I1
asI73
(lp1698
I2
asI76
(lp1699
I4
asI78
(lp1700
I5
asI80
(lp1701
I3
aI4
asI81
(lp1702
I4
aI2
asI163
(lp1703
I5
asI86
(lp1704
I1
asI89
(lp1705
I1
aI3
asI143
(lp1706
I2
aI1
asI186
(lp1707
I5
asI94
(lp1708
I5
asI96
(lp1709
I1
aI3
asI100
(lp1710
I1
aI2
asI101
(lp1711
I2
asI188
(lp1712
I3
aI1
asI107
(lp1713
I3
asI110
(lp1714
I1
aI5
asI111
(lp1715
I1
asI114
(lp1716
I1
asI117
(lp1717
I4
asI119
(lp1718
I2
aI3
asI120
(lp1719
I3
asI124
(lp1720
I2
asI127
(lp1721
I3
asa(dp1722
I128
(lp1723
I2
asI2
(lp1724
I1
aI4
asI3
(lp1725
I4
asI5
(lp1726
I4
aI5
asI8
(lp1727
I3
aI5
asI9
(lp1728
I5
asI138
(lp1729
I5
aI1
asI11
(lp1730
I5
aI1
asI12
(lp1731
I1
aI5
asI13
(lp1732
I5
asI15
(lp1733
I1
asI144
(lp1734
I1
asI152
(lp1735
I2
aI4
asI19
(lp1736
I2
aI5
asI20
(lp1737
I5
asI174
(lp1738
I4
asI22
(lp1739
I5
asI24
(lp1740
I3
asI153
(lp1741
I2
asI156
(lp1742
I4
asI133
(lp1743
I4
asI32
(lp1744
I3
aI5
asI33
(lp1745
I5
asI35
(lp1746
I5
asI164
(lp1747
I1
asI37
(lp1748
I5
asI39
(lp1749
I3
asI173
(lp1750
I1
aI4
asI46
(lp1751
I3
asI176
(lp1752
I3
aI1
asI136
(lp1753
I4
aI5
asI50
(lp1754
I1
aI3
asI51
(lp1755
I3
asI181
(lp1756
I1
asI55
(lp1757
I4
aI3
asI56
(lp1758
I3
aI1
asI57
(lp1759
I1
aI2
asI186
(lp1760
I5
aI1
asI159
(lp1761
I3
aI1
asI188
(lp1762
I1
aI2
asI189
(lp1763
I2
asI64
(lp1764
I5
asI193
(lp1765
I4
aI1
asI66
(lp1766
I4
aI5
asI67
(lp1767
I5
aI4
asI68
(lp1768
I4
aI2
asI69
(lp1769
I2
aI3
asI70
(lp1770
I3
asI194
(lp1771
I1
aI2
asI140
(lp1772
I3
asI131
(lp1773
I4
asI78
(lp1774
I5
aI3
asI80
(lp1775
I3
asI83
(lp1776
I1
asI139
(lp1777
I1
aI3
asI177
(lp1778
I1
asI185
(lp1779
I4
aI5
asI198
(lp1780
I1
aI3
asI95
(lp1781
I1
asI98
(lp1782
I5
asI187
(lp1783
I5
aI1
asI100
(lp1784
I3
aI2
asI195
(lp1785
I2
asI105
(lp1786
I2
asI110
(lp1787
I5
asI112
(lp1788
I3
aI4
asI113
(lp1789
I4
aI5
asI116
(lp1790
I1
aI2
asI117
(lp1791
I1
asI127
(lp1792
I1
aI2
asa(dp1793
I2
(lp1794
I2
asI5
(lp1795
I5
asI7
(lp1796
I1
asI136
(lp1797
I3
aI5
asI10
(lp1798
I1
aI5
asI139
(lp1799
I2
aI5
asI13
(lp1800
I4
aI5
asI14
(lp1801
I4
aI5
asI15
(lp1802
I5
aI1
asI17
(lp1803
I5
asI146
(lp1804
I4
asI19
(lp1805
I2
aI4
asI150
(lp1806
I2
asI25
(lp1807
I1
aI2
asI154
(lp1808
I5
aI3
asI155
(lp1809
I3
aI1
asI156
(lp1810
I1
asI30
(lp1811
I4
aI3
asI31
(lp1812
I3
aI1
asI32
(lp1813
I1
aI4
asI133
(lp1814
I5
asI35
(lp1815
I5
asI37
(lp1816
I5
asI166
(lp1817
I3
aI4
asI39
(lp1818
I4
asI41
(lp1819
I3
asI135
(lp1820
I3
aI5
asI172
(lp1821
I4
aI5
asI173
(lp1822
I4
aI5
asI174
(lp1823
I5
aI2
asI47
(lp1824
I2
asI176
(lp1825
I2
asI50
(lp1826
I2
asI179
(lp1827
I2
asI182
(lp1828
I4
aI1
asI183
(lp1829
I1
aI4
asI56
(lp1830
I1
asI186
(lp1831
I3
asI190
(lp1832
I2
asI65
(lp1833
I3
asI175
(lp1834
I2
aI5
asI70
(lp1835
I4
asI161
(lp1836
I4
asI72
(lp1837
I5
aI4
asI74
(lp1838
I1
aI4
asI75
(lp1839
I1
asI130
(lp1840
I3
asI78
(lp1841
I4
asI184
(lp1842
I4
asI163
(lp1843
I5
asI142
(lp1844
I3
asI86
(lp1845
I4
aI2
asI87
(lp1846
I4
aI2
asI88
(lp1847
I2
aI1
asI92
(lp1848
I2
asI199
(lp1849
I3
asI95
(lp1850
I5
asI97
(lp1851
I5
asI99
(lp1852
I1
asI165
(lp1853
I3
aI4
asI103
(lp1854
I3
asI106
(lp1855
I3
asI111
(lp1856
I2
asI115
(lp1857
I4
asI117
(lp1858
I4
aI5
asI118
(lp1859
I5
aI1
asI119
(lp1860
I1
aI4
asI120
(lp1861
I4
asa(dp1862
I131
(lp1863
I1
asI6
(lp1864
I1
asI12
(lp1865
I5
asI141
(lp1866
I3
asI14
(lp1867
I5
asI16
(lp1868
I4
aI2
asI18
(lp1869
I2
aI4
asI174
(lp1870
I3
aI5
asI22
(lp1871
I1
asI25
(lp1872
I2
aI3
asI156
(lp1873
I2
aI3
asI29
(lp1874
I1
asI163
(lp1875
I2
aI4
asI36
(lp1876
I2
aI5
asI37
(lp1877
I2
asI146
(lp1878
I2
asI41
(lp1879
I4
aI1
asI42
(lp1880
I1
aI4
asI173
(lp1881
I4
aI3
asI46
(lp1882
I4
asI157
(lp1883
I2
asI48
(lp1884
I1
asI177
(lp1885
I5
asI179
(lp1886
I5
asI52
(lp1887
I4
asI181
(lp1888
I4
asI54
(lp1889
I2
aI3
asI55
(lp1890
I3
asI184
(lp1891
I2
asI58
(lp1892
I3
aI4
asI59
(lp1893
I3
aI4
asI134
(lp1894
I2
asI191
(lp1895
I3
asI64
(lp1896
I5
asI66
(lp1897
I2
asI69
(lp1898
I3
asI198
(lp1899
I4
asI200
(lp1900
I2
aI3
asI140
(lp1901
I2
aI3
asI74
(lp1902
I3
aI1
asI75
(lp1903
I1
aI5
asI78
(lp1904
I2
asI85
(lp1905
I3
asI90
(lp1906
I5
asI92
(lp1907
I3
aI2
asI93
(lp1908
I2
asI97
(lp1909
I4
aI3
asI98
(lp1910
I3
aI4
asI99
(lp1911
I3
asI102
(lp1912
I4
asI104
(lp1913
I3
asI144
(lp1914
I5
asI109
(lp1915
I4
aI2
asI110
(lp1916
I4
aI2
asI111
(lp1917
I2
aI3
asI183
(lp1918
I1
aI2
asI116
(lp1919
I1
aI2
asI117
(lp1920
I2
asI122
(lp1921
I1
aI4
asI125
(lp1922
I3
aI1
asa(dp1923
I131
(lp1924
I2
asI4
(lp1925
I3
asI9
(lp1926
I4
asI138
(lp1927
I4
aI1
asI140
(lp1928
I2
asI13
(lp1929
I1
asI143
(lp1930
I2
asI18
(lp1931
I1
aI4
asI21
(lp1932
I3
asI26
(lp1933
I4
aI3
asI155
(lp1934
I5
aI1
asI28
(lp1935
I3
aI4
asI29
(lp1936
I4
aI2
asI160
(lp1937
I4
aI2
asI161
(lp1938
I2
aI1
asI34
(lp1939
I5
asI36
(lp1940
I1
asI198
(lp1941
I4
asI166
(lp1942
I2
aI4
asI167
(lp1943
I4
asI156
(lp1944
I1
aI2
asI170
(lp1945
I1
asI173
(lp1946
I5
aI4
asI46
(lp1947
I2
aI5
asI157
(lp1948
I2
asI176
(lp1949
I4
asI49
(lp1950
I5
aI4
asI50
(lp1951
I4
aI5
asI51
(lp1952
I5
aI2
asI52
(lp1953
I2
aI5
asI53
(lp1954
I2
asI182
(lp1955
I5
asI56
(lp1956
I5
asI180
(lp1957
I4
asI58
(lp1958
I1
aI5
asI59
(lp1959
I1
asI189
(lp1960
I4
aI2
asI62
(lp1961
I5
aI4
asI63
(lp1962
I4
aI2
asI64
(lp1963
I4
aI2
asI65
(lp1964
I2
aI1
asI66
(lp1965
I1
asI70
(lp1966
I3
aI1
asI71
(lp1967
I1
aI3
asI200
(lp1968
I2
asI175
(lp1969
I2
aI4
asI162
(lp1970
I1
asI190
(lp1971
I2
aI3
asI184
(lp1972
I1
aI2
asI84
(lp1973
I2
aI4
asI85
(lp1974
I4
asI185
(lp1975
I1
asI88
(lp1976
I2
asI91
(lp1977
I4
aI3
asI92
(lp1978
I4
aI3
asI94
(lp1979
I2
aI4
asI97
(lp1980
I1
aI2
asI98
(lp1981
I2
asI102
(lp1982
I4
asI104
(lp1983
I2
asI108
(lp1984
I2
aI1
asI146
(lp1985
I2
asI174
(lp1986
I4
aI2
asI115
(lp1987
I5
asI117
(lp1988
I3
aI2
asI118
(lp1989
I2
asI122
(lp1990
I4
asI191
(lp1991
I2
asa(dp1992
I171
(lp1993
I1
aI3
asI5
(lp1994
I5
asI7
(lp1995
I2
aI1
asI8
(lp1996
I1
asI137
(lp1997
I2
aI3
asI12
(lp1998
I5
aI4
asI14
(lp1999
I4
aI3
asI15
(lp2000
I3
aI1
asI20
(lp2001
I4
aI3
asI21
(lp2002
I3
aI4
asI22
(lp2003
I4
aI5
asI185
(lp2004
I4
asI24
(lp2005
I5
aI1
asI26
(lp2006
I3
asI175
(lp2007
I4
asI154
(lp2008
I2
asI30
(lp2009
I2
aI1
asI31
(lp2010
I1
asI133
(lp2011
I4
aI3
asI163
(lp2012
I1
asI36
(lp2013
I4
asI38
(lp2014
I3
asI177
(lp2015
I3
asI169
(lp2016
I5
asI193
(lp2017
I3
asI135
(lp2018
I4
aI3
asI44
(lp2019
I3
aI1
asI45
(lp2020
I1
aI5
asI157
(lp2021
I4
aI1
asI48
(lp2022
I3
aI5
asI49
(lp2023
I3
asI52
(lp2024
I2
asI158
(lp2025
I1
aI2
asI55
(lp2026
I4
aI5
asI56
(lp2027
I5
aI3
asI57
(lp2028
I3
aI2
asI58
(lp2029
I3
aI2
asI159
(lp2030
I2
asI181
(lp2031
I3
asI65
(lp2032
I3
aI2
asI198
(lp2033
I5
aI4
asI71
(lp2034
I4
aI2
asI200
(lp2035
I4
aI1
asI73
(lp2036
I3
asI76
(lp2037
I3
aI2
asI77
(lp2038
I2
aI4
asI80
(lp2039
I2
asI87
(lp2040
I1
aI3
asI143
(lp2041
I1
aI3
asI92
(lp2042
I5
asI94
(lp2043
I5
asI96
(lp2044
I5
asI98
(lp2045
I1
asI101
(lp2046
I1
aI3
asI102
(lp2047
I3
asI108
(lp2048
I4
asI110
(lp2049
I4
aI5
asI111
(lp2050
I4
aI5
asI112
(lp2051
I5
aI2
asI114
(lp2052
I3
asI120
(lp2053
I1
aI2
asI136
(lp2054
I3
aI2
asI166
(lp2055
I1
asI127
(lp2056
I1
asa(dp2057
I130
(lp2058
I3
asI4
(lp2059
I4
asI6
(lp2060
I1
aI3
asI193
(lp2061
I2
asI137
(lp2062
I2
aI4
asI12
(lp2063
I1
asI141
(lp2064
I1
aI4
asI142
(lp2065
I4
asI15
(lp2066
I1
asI145
(lp2067
I2
asI20
(lp2068
I2
asI174
(lp2069
I5
asI151
(lp2070
I1
asI25
(lp2071
I2
aI5
asI26
(lp2072
I2
asI156
(lp2073
I4
asI29
(lp2074
I1
aI4
asI30
(lp2075
I4
asI32
(lp2076
I4
aI2
asI33
(lp2077
I2
aI4
asI36
(lp2078
I1
aI4
asI37
(lp2079
I4
asI176
(lp2080
I3
aI4
asI46
(lp2081
I5
aI4
asI47
(lp2082
I5
aI4
asI48
(lp2083
I4
aI2
asI49
(lp2084
I2
aI1
asI50
(lp2085
I1
asI179
(lp2086
I4
asI158
(lp2087
I2
asI182
(lp2088
I2
aI1
asI55
(lp2089
I1
asI58
(lp2090
I4
aI1
asI60
(lp2091
I2
asI190
(lp2092
I3
aI5
asI63
(lp2093
I5
aI1
asI65
(lp2094
I3
asI68
(lp2095
I4
asI70
(lp2096
I1
aI5
asI200
(lp2097
I4
asI140
(lp2098
I5
aI1
asI74
(lp2099
I1
asI78
(lp2100
I3
aI4
asI79
(lp2101
I3
asI82
(lp2102
I2
asI164
(lp2103
I1
asI90
(lp2104
I5
aI4
asI91
(lp2105
I4
aI2
asI92
(lp2106
I2
aI4
asI93
(lp2107
I4
asI95
(lp2108
I2
aI1
asI96
(lp2109
I1
asI104
(lp2110
I4
asI196
(lp2111
I2
aI3
asI109
(lp2112
I1
asI113
(lp2113
I5
aI3
asI115
(lp2114
I3
asI118
(lp2115
I4
asI120
(lp2116
I1
asI148
(lp2117
I3
asI191
(lp2118
I5
aI2
asI124
(lp2119
I5
aI4
asI125
(lp2120
I4
aI3
asI126
(lp2121
I3
aI1
asI127
(lp2122
I1
aI5
asa(dp2123
I128
(lp2124
I1
aI3
asI129
(lp2125
I3
asI2
(lp2126
I3
asI132
(lp2127
I1
aI5
asI5
(lp2128
I5
aI2
asI7
(lp2129
I2
aI1
asI8
(lp2130
I1
asI137
(lp2131
I2
asI11
(lp2132
I1
asI140
(lp2133
I1
aI5
asI14
(lp2134
I5
aI2
asI15
(lp2135
I5
aI2
asI16
(lp2136
I2
aI1
asI17
(lp2137
I1
asI148
(lp2138
I1
asI21
(lp2139
I1
asI151
(lp2140
I2
aI3
asI152
(lp2141
I3
asI30
(lp2142
I5
asI32
(lp2143
I3
aI4
asI33
(lp2144
I3
aI4
asI36
(lp2145
I2
aI3
asI166
(lp2146
I2
aI1
asI167
(lp2147
I1
asI42
(lp2148
I1
asI199
(lp2149
I2
asI46
(lp2150
I4
asI175
(lp2151
I2
asI48
(lp2152
I1
asI136
(lp2153
I2
aI4
asI178
(lp2154
I5
asI180
(lp2155
I1
aI3
asI181
(lp2156
I3
asI185
(lp2157
I1
asI58
(lp2158
I5
aI3
asI59
(lp2159
I3
aI5
asI60
(lp2160
I5
asI189
(lp2161
I3
aI1
asI62
(lp2162
I4
aI3
asI63
(lp2163
I3
aI2
asI193
(lp2164
I3
asI69
(lp2165
I5
asI71
(lp2166
I4
aI5
asI74
(lp2167
I1
aI2
asI80
(lp2168
I5
aI4
asI82
(lp2169
I2
aI5
asI83
(lp2170
I5
asI85
(lp2171
I3
aI1
asI86
(lp2172
I1
asI164
(lp2173
I5
asI143
(lp2174
I2
aI1
asI93
(lp2175
I2
aI4
asI94
(lp2176
I4
asI96
(lp2177
I3
aI5
asI99
(lp2178
I5
asI101
(lp2179
I5
asI103
(lp2180
I1
asI188
(lp2181
I4
aI3
asI106
(lp2182
I4
aI2
asI107
(lp2183
I4
aI2
asI108
(lp2184
I2
aI1
asI109
(lp2185
I1
asI113
(lp2186
I2
aI3
asI114
(lp2187
I3
asI118
(lp2188
I5
asI120
(lp2189
I3
asI125
(lp2190
I5
aI4
asI127
(lp2191
I4
aI1
asa(dp2192
I2
(lp2193
I1
aI4
asI3
(lp2194
I4
asI132
(lp2195
I1
asI193
(lp2196
I4
asI8
(lp2197
I3
aI5
asI137
(lp2198
I5
aI4
asI138
(lp2199
I4
aI5
asI11
(lp2200
I2
aI3
asI140
(lp2201
I1
aI5
asI141
(lp2202
I1
asI144
(lp2203
I2
aI1
asI18
(lp2204
I5
asI131
(lp2205
I2
aI1
asI20
(lp2206
I3
aI4
asI21
(lp2207
I4
aI1
asI23
(lp2208
I1
asI26
(lp2209
I2
asI29
(lp2210
I1
aI2
asI30
(lp2211
I2
asI159
(lp2212
I3
aI4
asI198
(lp2213
I5
asI42
(lp2214
I3
aI1
asI43
(lp2215
I1
aI2
asI175
(lp2216
I1
asI136
(lp2217
I5
aI4
asI179
(lp2218
I1
asI182
(lp2219
I5
aI2
asI184
(lp2220
I5
asI58
(lp2221
I1
asI189
(lp2222
I4
aI2
asI63
(lp2223
I5
asI65
(lp2224
I3
asI139
(lp2225
I5
aI1
asI70
(lp2226
I1
aI3
asI71
(lp2227
I3
asI200
(lp2228
I4
asI78
(lp2229
I3
asI83
(lp2230
I3
aI1
asI84
(lp2231
I1
asI88
(lp2232
I1
asI92
(lp2233
I2
aI4
asI186
(lp2234
I2
asI96
(lp2235
I5
aI3
asI97
(lp2236
I3
aI5
asI98
(lp2237
I5
asI100
(lp2238
I5
aI4
asI101
(lp2239
I4
aI3
asI102
(lp2240
I3
aI5
asI103
(lp2241
I3
aI5
asI106
(lp2242
I4
aI2
asI108
(lp2243
I1
asI116
(lp2244
I5
asI118
(lp2245
I3
aI5
asI119
(lp2246
I5
aI4
asI121
(lp2247
I1
aI5
asI122
(lp2248
I5
asI191
(lp2249
I5
asI124
(lp2250
I5
asI170
(lp2251
I3
asI126
(lp2252
I1
aI4
asI127
(lp2253
I1
asa(dp2254
I129
(lp2255
I4
aI2
asI3
(lp2256
I2
asI133
(lp2257
I3
aI5
asI134
(lp2258
I5
asI136
(lp2259
I3
asI11
(lp2260
I1
aI2
asI12
(lp2261
I1
asI141
(lp2262
I4
asI194
(lp2263
I2
aI4
asI143
(lp2264
I5
asI17
(lp2265
I5
aI3
asI18
(lp2266
I3
aI4
asI19
(lp2267
I4
aI2
asI171
(lp2268
I4
aI3
asI155
(lp2269
I5
aI3
asI157
(lp2270
I3
aI5
asI158
(lp2271
I5
aI3
asI31
(lp2272
I4
aI5
asI160
(lp2273
I4
asI33
(lp2274
I2
aI1
asI34
(lp2275
I1
asI38
(lp2276
I3
aI4
asI39
(lp2277
I4
asI168
(lp2278
I1
aI5
asI41
(lp2279
I5
asI43
(lp2280
I4
asI45
(lp2281
I3
aI1
asI46
(lp2282
I3
asI175
(lp2283
I1
asI200
(lp2284
I2
asI182
(lp2285
I2
aI4
asI183
(lp2286
I4
asI185
(lp2287
I5
asI59
(lp2288
I3
asI62
(lp2289
I5
aI4
asI63
(lp2290
I4
aI5
asI64
(lp2291
I5
aI1
asI66
(lp2292
I4
asI68
(lp2293
I2
asI197
(lp2294
I4
aI2
asI198
(lp2295
I4
aI2
asI71
(lp2296
I2
aI5
asI72
(lp2297
I2
asI140
(lp2298
I2
aI4
asI187
(lp2299
I3
asI76
(lp2300
I2
aI3
asI145
(lp2301
I4
aI1
asI173
(lp2302
I4
asI83
(lp2303
I3
aI4
asI84
(lp2304
I4
aI2
asI147
(lp2305
I2
asI86
(lp2306
I4
asI199
(lp2307
I2
aI1
asI88
(lp2308
I1
aI5
asI89
(lp2309
I5
asI91
(lp2310
I2
aI5
asI92
(lp2311
I5
asI94
(lp2312
I1
aI3
asI95
(lp2313
I3
asI99
(lp2314
I4
asI131
(lp2315
I5
asI101
(lp2316
I5
aI4
asI102
(lp2317
I4
aI5
asI103
(lp2318
I5
aI4
asI104
(lp2319
I4
aI3
asI105
(lp2320
I3
aI2
asI167
(lp2321
I4
aI1
asI146
(lp2322
I1
aI2
asI115
(lp2323
I5
asI117
(lp2324
I3
aI2
asI118
(lp2325
I2
asI169
(lp2326
I5
asI121
(lp2327
I2
aI4
asI122
(lp2328
I4
asI191
(lp2329
I1
asI124
(lp2330
I4
aI1
asI125
(lp2331
I1
aI2
asa(dp2332
I2
(lp2333
I4
aI5
asI4
(lp2334
I5
aI2
asI5
(lp2335
I2
aI4
asI6
(lp2336
I2
asI9
(lp2337
I4
aI2
asI11
(lp2338
I5
asI140
(lp2339
I2
asI13
(lp2340
I4
asI15
(lp2341
I1
asI18
(lp2342
I2
asI149
(lp2343
I4
asI153
(lp2344
I2
asI152
(lp2345
I3
aI2
asI25
(lp2346
I1
asI175
(lp2347
I1
asI29
(lp2348
I5
aI3
asI31
(lp2349
I3
aI2
asI32
(lp2350
I2
asI161
(lp2351
I1
asI38
(lp2352
I4
aI5
asI40
(lp2353
I5
aI4
asI41
(lp2354
I4
aI3
asI42
(lp2355
I3
aI1
asI43
(lp2356
I1
aI2
asI173
(lp2357
I4
asI47
(lp2358
I4
asI49
(lp2359
I3
asI178
(lp2360
I1
asI53
(lp2361
I1
aI4
asI54
(lp2362
I4
asI132
(lp2363
I1
aI3
asI185
(lp2364
I2
asI58
(lp2365
I1
asI168
(lp2366
I2
aI3
asI61
(lp2367
I1
aI3
asI190
(lp2368
I1
asI65
(lp2369
I4
asI67
(lp2370
I3
asI199
(lp2371
I4
aI2
asI79
(lp2372
I4
asI81
(lp2373
I3
asI86
(lp2374
I1
aI5
asI87
(lp2375
I5
asI89
(lp2376
I1
aI4
asI92
(lp2377
I2
aI5
asI93
(lp2378
I5
asI95
(lp2379
I3
asI99
(lp2380
I2
asI102
(lp2381
I3
asI105
(lp2382
I5
asI107
(lp2383
I3
aI4
asI108
(lp2384
I4
asI146
(lp2385
I2
asI110
(lp2386
I1
aI5
asI111
(lp2387
I5
asI157
(lp2388
I3
asI113
(lp2389
I4
aI5
asI115
(lp2390
I5
aI4
asI116
(lp2391
I4
aI2
asI117
(lp2392
I2
aI1
asI118
(lp2393
I1
asI127
(lp2394
I3
asa(dp2395
I2
(lp2396
I4
asI171
(lp2397
I5
asI150
(lp2398
I1
aI3
asI6
(lp2399
I3
asI135
(lp2400
I4
aI1
asI137
(lp2401
I1
aI2
asI138
(lp2402
I1
asI11
(lp2403
I2
aI5
asI12
(lp2404
I5
asI14
(lp2405
I2
aI1
asI15
(lp2406
I1
asI146
(lp2407
I3
aI5
asI19
(lp2408
I1
aI4
asI149
(lp2409
I5
aI1
asI22
(lp2410
I5
asI151
(lp2411
I3
asI24
(lp2412
I3
asI196
(lp2413
I3
aI5
asI155
(lp2414
I4
aI2
asI28
(lp2415
I5
asI157
(lp2416
I5
asI30
(lp2417
I2
asI159
(lp2418
I4
aI1
asI161
(lp2419
I1
asI35
(lp2420
I5
aI4
asI36
(lp2421
I4
aI2
asI37
(lp2422
I2
aI3
asI156
(lp2423
I2
aI5
asI43
(lp2424
I2
asI173
(lp2425
I5
asI175
(lp2426
I1
aI2
asI51
(lp2427
I4
aI2
asI183
(lp2428
I2
aI1
asI184
(lp2429
I1
asI57
(lp2430
I4
asI188
(lp2431
I5
asI61
(lp2432
I1
asI169
(lp2433
I4
asI191
(lp2434
I1
asI65
(lp2435
I1
aI5
asI68
(lp2436
I2
asI199
(lp2437
I4
aI1
asI200
(lp2438
I1
aI2
asI74
(lp2439
I3
asI78
(lp2440
I2
asI82
(lp2441
I1
aI3
asI83
(lp2442
I3
asI87
(lp2443
I1
aI4
asI88
(lp2444
I4
asI164
(lp2445
I2
aI1
asI90
(lp2446
I3
asI165
(lp2447
I1
asI106
(lp2448
I3
asI111
(lp2449
I5
asI113
(lp2450
I1
aI4
asI114
(lp2451
I4
asI147
(lp2452
I5
asI190
(lp2453
I2
aI1
asI118
(lp2454
I4
aI3
asI119
(lp2455
I4
aI3
asI120
(lp2456
I4
aI3
asI121
(lp2457
I3
aI1
asI122
(lp2458
I3
asa(dp2459
I128
(lp2460
I4
asI130
(lp2461
I5
aI1
asI131
(lp2462
I1
aI2
asI132
(lp2463
I2
asI179
(lp2464
I4
aI1
asI7
(lp2465
I2
aI4
asI137
(lp2466
I1
aI3
asI11
(lp2467
I5
asI13
(lp2468
I5
aI1
asI14
(lp2469
I1
aI2
asI15
(lp2470
I1
asI145
(lp2471
I4
asI188
(lp2472
I2
aI3
asI20
(lp2473
I3
aI4
asI21
(lp2474
I4
aI3
asI151
(lp2475
I2
asI154
(lp2476
I5
asI156
(lp2477
I5
aI3
asI157
(lp2478
I5
aI3
asI158
(lp2479
I3
aI4
asI31
(lp2480
I3
asI164
(lp2481
I3
asI37
(lp2482
I5
aI2
asI38
(lp2483
I2
aI4
asI39
(lp2484
I4
asI41
(lp2485
I3
aI5
asI42
(lp2486
I5
aI4
asI44
(lp2487
I2
aI4
asI142
(lp2488
I1
asI47
(lp2489
I2
asI172
(lp2490
I3
asI181
(lp2491
I3
asI159
(lp2492
I3
aI4
asI60
(lp2493
I1
asI193
(lp2494
I5
asI195
(lp2495
I4
aI3
asI71
(lp2496
I3
asI74
(lp2497
I2
asI79
(lp2498
I2
asI83
(lp2499
I5
asI85
(lp2500
I5
aI4
asI86
(lp2501
I4
aI2
asI87
(lp2502
I2
aI3
asI88
(lp2503
I3
asI91
(lp2504
I5
asI93
(lp2505
I1
aI5
asI94
(lp2506
I5
asI96
(lp2507
I1
asI105
(lp2508
I5
aI3
asI107
(lp2509
I5
aI3
asI108
(lp2510
I5
aI3
asI109
(lp2511
I5
aI3
asI110
(lp2512
I3
aI1
asI111
(lp2513
I1
asI116
(lp2514
I3
aI1
asI170
(lp2515
I4
aI2
asI148
(lp2516
I3
asI124
(lp2517
I3
aI1
asI125
(lp2518
I1
aI4
asa(dp2519
I128
(lp2520
I5
asI130
(lp2521
I2
aI4
asI135
(lp2522
I3
asI8
(lp2523
I5
asI10
(lp2524
I2
aI4
asI139
(lp2525
I2
aI3
asI143
(lp2526
I5
asI145
(lp2527
I3
aI5
asI146
(lp2528
I5
asI20
(lp2529
I4
aI1
asI21
(lp2530
I1
aI3
asI26
(lp2531
I1
aI4
asI27
(lp2532
I4
asI29
(lp2533
I1
asI176
(lp2534
I3
aI1
asI164
(lp2535
I1
aI5
asI37
(lp2536
I2
asI177
(lp2537
I1
asI168
(lp2538
I4
aI1
asI41
(lp2539
I4
asI170
(lp2540
I5
asI43
(lp2541
I5
asI172
(lp2542
I5
aI4
asI45
(lp2543
I5
asI174
(lp2544
I4
aI5
asI47
(lp2545
I5
aI1
asI48
(lp2546
I1
aI4
asI49
(lp2547
I4
asI51
(lp2548
I5
aI3
asI53
(lp2549
I2
aI5
asI182
(lp2550
I3
aI2
asI183
(lp2551
I2
asI56
(lp2552
I2
aI1
asI57
(lp2553
I1
asI188
(lp2554
I4
asI191
(lp2555
I4
aI1
asI65
(lp2556
I1
asI196
(lp2557
I2
asI69
(lp2558
I4
aI2
asI71
(lp2559
I1
asI200
(lp2560
I4
aI3
asI74
(lp2561
I1
aI4
asI78
(lp2562
I2
aI3
asI173
(lp2563
I4
aI5
asI193
(lp2564
I3
asI88
(lp2565
I4
asI90
(lp2566
I2
aI4
asI94
(lp2567
I3
asI165
(lp2568
I1
asI101
(lp2569
I2
aI1
asI106
(lp2570
I2
aI4
asI107
(lp2571
I4
asI157
(lp2572
I3
aI1
asI169
(lp2573
I1
aI5
asI148
(lp2574
I2
asI123
(lp2575
I5
aI2
asI125
(lp2576
I4
asI127
(lp2577
I1
aI5
asa(dp2578
I128
(lp2579
I1
asI171
(lp2580
I1
aI2
asI132
(lp2581
I3
asI6
(lp2582
I5
asI145
(lp2583
I1
aI2
asI8
(lp2584
I1
asI137
(lp2585
I4
asI13
(lp2586
I3
aI2
asI14
(lp2587
I2
aI4
asI17
(lp2588
I2
asI149
(lp2589
I1
asI22
(lp2590
I1
asI185
(lp2591
I5
asI156
(lp2592
I2
aI3
asI29
(lp2593
I5
aI2
asI30
(lp2594
I2
aI1
asI31
(lp2595
I2
asI37
(lp2596
I2
aI4
asI38
(lp2597
I4
asI167
(lp2598
I2
asI40
(lp2599
I1
aI5
asI41
(lp2600
I5
asI43
(lp2601
I3
aI5
asI44
(lp2602
I5
asI46
(lp2603
I1
asI157
(lp2604
I3
asI49
(lp2605
I1
aI4
asI178
(lp2606
I1
aI4
asI172
(lp2607
I2
asI182
(lp2608
I2
asI56
(lp2609
I3
aI2
asI57
(lp2610
I2
aI3
asI187
(lp2611
I3
aI1
asI188
(lp2612
I3
asI63
(lp2613
I5
asI65
(lp2614
I1
aI4
asI66
(lp2615
I1
asI195
(lp2616
I2
asI69
(lp2617
I5
asI198
(lp2618
I5
asI71
(lp2619
I2
aI4
asI72
(lp2620
I4
asI74
(lp2621
I3
asI78
(lp2622
I5
asI80
(lp2623
I2
asI142
(lp2624
I3
asI87
(lp2625
I1
aI3
asI92
(lp2626
I2
asI99
(lp2627
I2
asI103
(lp2628
I1
asI200
(lp2629
I4
asI110
(lp2630
I2
asI113
(lp2631
I5
asI115
(lp2632
I3
aI1
asI116
(lp2633
I3
asI122
(lp2634
I5
asI124
(lp2635
I5
aI3
asI125
(lp2636
I3
aI4
asI126
(lp2637
I4
aI2
asa(dp2638
I128
(lp2639
I1
asI132
(lp2640
I2
aI4
asI5
(lp2641
I1
asI135
(lp2642
I3
asI8
(lp2643
I4
asI151
(lp2644
I1
aI4
asI140
(lp2645
I5
aI3
asI13
(lp2646
I4
asI142
(lp2647
I3
aI2
asI143
(lp2648
I2
asI141
(lp2649
I5
aI3
asI17
(lp2650
I3
asI146
(lp2651
I1
aI2
asI195
(lp2652
I2
asI20
(lp2653
I1
aI5
asI21
(lp2654
I5
asI23
(lp2655
I2
aI4
asI24
(lp2656
I4
asI26
(lp2657
I1
asI155
(lp2658
I4
aI1
asI156
(lp2659
I1
aI3
asI157
(lp2660
I3
asI31
(lp2661
I5
asI133
(lp2662
I4
asI33
(lp2663
I2
aI3
asI34
(lp2664
I3
asI168
(lp2665
I1
asI44
(lp2666
I1
asI173
(lp2667
I1
asI47
(lp2668
I2
aI5
asI48
(lp2669
I5
asI50
(lp2670
I3
asI54
(lp2671
I1
asI186
(lp2672
I4
aI2
asI59
(lp2673
I1
aI4
asI60
(lp2674
I4
asI62
(lp2675
I1
asI66
(lp2676
I3
aI4
asI67
(lp2677
I4
asI69
(lp2678
I1
asI72
(lp2679
I1
aI2
asI73
(lp2680
I2
asI76
(lp2681
I1
asI79
(lp2682
I3
asI86
(lp2683
I5
aI1
asI87
(lp2684
I1
aI5
asI88
(lp2685
I1
asI152
(lp2686
I4
asI91
(lp2687
I4
asI93
(lp2688
I2
asI96
(lp2689
I3
asI100
(lp2690
I2
aI3
asI105
(lp2691
I5
asI107
(lp2692
I1
aI2
asI111
(lp2693
I3
asI118
(lp2694
I1
asI123
(lp2695
I2
aI4
asI124
(lp2696
I4
asa(dp2697
I128
(lp2698
I5
aI2
asI192
(lp2699
I2
aI4
asI2
(lp2700
I2
aI4
asI131
(lp2701
I3
asI5
(lp2702
I4
aI5
asI7
(lp2703
I5
aI3
asI136
(lp2704
I3
asI9
(lp2705
I1
asI13
(lp2706
I4
asI145
(lp2707
I1
aI5
asI18
(lp2708
I5
asI20
(lp2709
I2
aI4
asI21
(lp2710
I4
asI150
(lp2711
I4
asI23
(lp2712
I1
aI4
asI24
(lp2713
I4
asI26
(lp2714
I5
asI28
(lp2715
I5
aI1
asI29
(lp2716
I1
aI2
asI30
(lp2717
I2
asI160
(lp2718
I1
aI4
asI36
(lp2719
I2
aI1
asI37
(lp2720
I1
asI146
(lp2721
I5
asI40
(lp2722
I4
asI169
(lp2723
I2
aI1
asI170
(lp2724
I1
asI135
(lp2725
I2
aI3
asI178
(lp2726
I1
asI175
(lp2727
I3
asI48
(lp2728
I4
asI50
(lp2729
I5
aI4
asI52
(lp2730
I2
aI1
asI158
(lp2731
I5
asI182
(lp2732
I5
aI3
asI183
(lp2733
I3
aI4
asI184
(lp2734
I4
asI58
(lp2735
I4
aI1
asI59
(lp2736
I1
aI4
asI60
(lp2737
I4
asI190
(lp2738
I4
aI2
asI191
(lp2739
I4
aI2
asI64
(lp2740
I4
aI3
asI193
(lp2741
I4
asI66
(lp2742
I3
aI5
asI195
(lp2743
I2
asI69
(lp2744
I2
aI3
asI70
(lp2745
I3
asI199
(lp2746
I1
asI73
(lp2747
I3
aI5
asI74
(lp2748
I3
asI77
(lp2749
I2
asI80
(lp2750
I5
asI82
(lp2751
I5
asI84
(lp2752
I5
asI86
(lp2753
I4
aI2
asI87
(lp2754
I2
aI1
asI88
(lp2755
I1
asI152
(lp2756
I5
asI186
(lp2757
I2
asI130
(lp2758
I2
aI3
asI100
(lp2759
I5
asI166
(lp2760
I1
asI102
(lp2761
I4
aI3
asI104
(lp2762
I3
aI5
asI107
(lp2763
I5
aI1
asI108
(lp2764
I1
aI3
asI109
(lp2765
I3
asI154
(lp2766
I2
asI112
(lp2767
I3
aI4
asI117
(lp2768
I1
aI3
asI118
(lp2769
I3
asI148
(lp2770
I4
aI1
asI123
(lp2771
I5
aI2
asI124
(lp2772
I2
aI1
asI125
(lp2773
I1
asI149
(lp2774
I1
aI4
asa(dp2775
I129
(lp2776
I1
aI3
asI2
(lp2777
I1
aI3
asI3
(lp2778
I3
asI196
(lp2779
I5
aI1
asI134
(lp2780
I1
aI3
asI135
(lp2781
I3
asI140
(lp2782
I2
asI130
(lp2783
I3
asI15
(lp2784
I5
asI144
(lp2785
I2
asI17
(lp2786
I2
aI1
asI18
(lp2787
I1
asI147
(lp2788
I3
aI1
asI21
(lp2789
I1
asI25
(lp2790
I5
aI4
asI27
(lp2791
I3
aI5
asI28
(lp2792
I5
aI2
asI30
(lp2793
I3
asI197
(lp2794
I5
aI1
asI160
(lp2795
I1
aI2
asI33
(lp2796
I5
aI3
asI35
(lp2797
I4
aI1
asI164
(lp2798
I1
asI37
(lp2799
I2
asI167
(lp2800
I3
aI4
asI170
(lp2801
I1
aI3
asI171
(lp2802
I1
asI178
(lp2803
I1
aI3
asI177
(lp2804
I5
aI1
asI50
(lp2805
I4
aI1
asI179
(lp2806
I3
asI54
(lp2807
I2
asI183
(lp2808
I1
asI57
(lp2809
I3
aI4
asI60
(lp2810
I4
aI2
asI61
(lp2811
I2
aI1
asI62
(lp2812
I1
asI192
(lp2813
I1
aI5
asI195
(lp2814
I5
aI1
asI68
(lp2815
I2
aI4
asI69
(lp2816
I4
asI198
(lp2817
I1
aI3
asI161
(lp2818
I2
asI73
(lp2819
I2
asI190
(lp2820
I5
asI80
(lp2821
I2
asI83
(lp2822
I1
aI4
asI89
(lp2823
I1
asI93
(lp2824
I5
aI1
asI199
(lp2825
I3
asI95
(lp2826
I1
aI4
asI96
(lp2827
I4
asI98
(lp2828
I3
aI2
asI99
(lp2829
I2
aI4
asI106
(lp2830
I2
aI3
asI107
(lp2831
I3
asI111
(lp2832
I2
aI4
asI112
(lp2833
I4
asI117
(lp2834
I4
aI3
asI119
(lp2835
I1
aI2
asI124
(lp2836
I5
aI2
asI125
(lp2837
I2
aI1
asI126
(lp2838
I1
asa(dp2839
I2
(lp2840
I3
asI179
(lp2841
I2
aI3
asI162
(lp2842
I3
aI2
asI8
(lp2843
I4
aI3
asI172
(lp2844
I5
aI2
asI10
(lp2845
I1
asI13
(lp2846
I2
aI1
asI14
(lp2847
I1
asI173
(lp2848
I5
aI2
asI146
(lp2849
I2
asI19
(lp2850
I3
aI2
asI149
(lp2851
I4
asI153
(lp2852
I3
asI26
(lp2853
I2
aI5
asI27
(lp2854
I5
asI29
(lp2855
I1
aI5
asI158
(lp2856
I5
aI4
asI32
(lp2857
I5
aI4
asI193
(lp2858
I2
asI34
(lp2859
I1
aI4
asI35
(lp2860
I4
asI38
(lp2861
I2
aI3
asI39
(lp2862
I3
asI168
(lp2863
I1
aI5
asI42
(lp2864
I5
asI200
(lp2865
I3
asI44
(lp2866
I1
aI3
asI45
(lp2867
I3
asI142
(lp2868
I4
asI157
(lp2869
I3
aI5
asI177
(lp2870
I4
aI3
asI51
(lp2871
I1
aI3
asI55
(lp2872
I4
aI1
asI56
(lp2873
I1
aI5
asI57
(lp2874
I5
asI59
(lp2875
I1
aI4
asI138
(lp2876
I1
asI192
(lp2877
I3
aI2
asI160
(lp2878
I4
aI3
asI66
(lp2879
I3
asI196
(lp2880
I3
asI72
(lp2881
I1
aI4
asI73
(lp2882
I4
asI75
(lp2883
I5
aI2
asI76
(lp2884
I5
aI2
asI77
(lp2885
I2
aI4
asI78
(lp2886
I4
asI189
(lp2887
I2
asI80
(lp2888
I5
asI82
(lp2889
I5
aI2
asI83
(lp2890
I5
aI2
asI84
(lp2891
I2
aI4
asI85
(lp2892
I4
asI87
(lp2893
I2
asI175
(lp2894
I5
asI90
(lp2895
I4
asI92
(lp2896
I2
aI3
asI96
(lp2897
I2
asI101
(lp2898
I5
aI4
asI102
(lp2899
I4
aI5
asI103
(lp2900
I5
aI2
asI104
(lp2901
I2
aI1
asI105
(lp2902
I1
asI166
(lp2903
I5
aI4
asI110
(lp2904
I3
asI174
(lp2905
I2
aI5
asI118
(lp2906
I5
aI3
asI119
(lp2907
I3
aI2
asI120
(lp2908
I2
aI1
asI124
(lp2909
I1
asI127
(lp2910
I4
asa(dp2911
I128
(lp2912
I4
aI5
asI129
(lp2913
I5
aI2
asI130
(lp2914
I2
aI5
asI131
(lp2915
I5
asI133
(lp2916
I4
aI3
asI134
(lp2917
I3
aI2
asI7
(lp2918
I2
aI3
asI8
(lp2919
I3
asI138
(lp2920
I1
aI2
asI11
(lp2921
I1
asI14
(lp2922
I1
aI5
asI173
(lp2923
I2
aI1
asI19
(lp2924
I4
asI174
(lp2925
I2
asI22
(lp2926
I2
asI153
(lp2927
I4
aI2
asI26
(lp2928
I2
asI155
(lp2929
I2
aI3
asI156
(lp2930
I3
asI31
(lp2931
I3
aI1
asI32
(lp2932
I1
asI161
(lp2933
I4
asI35
(lp2934
I4
aI2
asI36
(lp2935
I2
aI5
asI39
(lp2936
I3
aI2
asI168
(lp2937
I1
aI3
asI169
(lp2938
I3
asI135
(lp2939
I2
asI172
(lp2940
I5
aI2
asI45
(lp2941
I2
aI5
asI46
(lp2942
I5
asI48
(lp2943
I1
aI2
asI49
(lp2944
I1
asI180
(lp2945
I1
aI3
asI54
(lp2946
I3
aI5
asI57
(lp2947
I1
asI187
(lp2948
I5
aI3
asI188
(lp2949
I3
aI2
asI189
(lp2950
I2
asI62
(lp2951
I1
aI3
asI193
(lp2952
I1
asI139
(lp2953
I2
asI196
(lp2954
I4
asI71
(lp2955
I2
aI4
asI78
(lp2956
I1
aI5
asI81
(lp2957
I2
aI5
asI82
(lp2958
I5
asI163
(lp2959
I1
asI84
(lp2960
I1
asI185
(lp2961
I4
asI88
(lp2962
I3
aI2
asI96
(lp2963
I2
asI99
(lp2964
I1
aI3
asI104
(lp2965
I5
asI106
(lp2966
I2
aI3
asI107
(lp2967
I3
asI110
(lp2968
I4
asI112
(lp2969
I1
aI2
asI118
(lp2970
I2
asI126
(lp2971
I5
asa(dp2972
I128
(lp2973
I2
aI1
asI129
(lp2974
I1
asI132
(lp2975
I3
aI5
asI133
(lp2976
I5
asI6
(lp2977
I4
asI135
(lp2978
I2
aI5
asI10
(lp2979
I2
aI5
asI11
(lp2980
I5
asI13
(lp2981
I1
aI3
asI14
(lp2982
I3
asI17
(lp2983
I1
aI2
asI18
(lp2984
I2
asI147
(lp2985
I3
aI4
asI148
(lp2986
I4
aI3
asI21
(lp2987
I1
aI4
asI22
(lp2988
I1
asI25
(lp2989
I2
asI155
(lp2990
I4
aI5
asI28
(lp2991
I4
aI5
asI29
(lp2992
I5
aI4
asI150
(lp2993
I3
asI31
(lp2994
I5
aI4
asI32
(lp2995
I4
aI3
asI33
(lp2996
I3
aI1
asI163
(lp2997
I4
aI1
asI164
(lp2998
I1
aI3
asI37
(lp2999
I2
aI4
asI38
(lp3000
I4
asI170
(lp3001
I1
asI46
(lp3002
I3
asI157
(lp3003
I4
aI5
asI51
(lp3004
I1
aI5
asI158
(lp3005
I5
aI4
asI54
(lp3006
I3
aI2
asI183
(lp3007
I5
aI1
asI184
(lp3008
I1
aI3
asI185
(lp3009
I3
asI159
(lp3010
I4
aI2
asI138
(lp3011
I2
asI62
(lp3012
I4
asI160
(lp3013
I2
aI5
asI175
(lp3014
I3
asI197
(lp3015
I3
aI1
asI70
(lp3016
I3
aI4
asI194
(lp3017
I1
asI77
(lp3018
I1
aI4
asI78
(lp3019
I4
asI141
(lp3020
I3
asI81
(lp3021
I1
aI2
asI82
(lp3022
I1
asI193
(lp3023
I3
aI1
asI88
(lp3024
I3
aI5
asI89
(lp3025
I5
asI91
(lp3026
I5
asI93
(lp3027
I3
asI97
(lp3028
I1
aI3
asI98
(lp3029
I3
asI101
(lp3030
I2
aI5
asI102
(lp3031
I2
asI105
(lp3032
I5
asI107
(lp3033
I3
asI110
(lp3034
I3
aI5
asI111
(lp3035
I5
aI4
asI113
(lp3036
I5
aI4
asI115
(lp3037
I3
aI1
asI190
(lp3038
I3
aI4
asI119
(lp3039
I2
asI126
(lp3040
I5
aI2
asI127
(lp3041
I5
aI2
asa(dp3042
I128
(lp3043
I4
asI4
(lp3044
I1
asI8
(lp3045
I1
aI5
asI9
(lp3046
I5
asI11
(lp3047
I5
aI1
asI13
(lp3048
I1
aI5
asI14
(lp3049
I5
asI16
(lp3050
I1
asI146
(lp3051
I3
asI21
(lp3052
I1
aI2
asI151
(lp3053
I4
asI26
(lp3054
I1
asI154
(lp3055
I1
aI4
asI158
(lp3056
I3
aI1
asI159
(lp3057
I1
asI32
(lp3058
I2
asI162
(lp3059
I1
aI5
asI35
(lp3060
I1
asI163
(lp3061
I5
asI166
(lp3062
I4
asI40
(lp3063
I1
aI2
asI41
(lp3064
I2
asI47
(lp3065
I3
aI1
asI176
(lp3066
I1
asI157
(lp3067
I5
aI3
asI54
(lp3068
I1
asI183
(lp3069
I1
asI57
(lp3070
I2
asI187
(lp3071
I3
aI1
asI188
(lp3072
I1
asI61
(lp3073
I4
asI192
(lp3074
I1
asI65
(lp3075
I1
asI197
(lp3076
I1
aI5
asI198
(lp3077
I5
asI72
(lp3078
I4
aI3
asI73
(lp3079
I3
aI4
asI74
(lp3080
I4
asI76
(lp3081
I2
asI83
(lp3082
I2
asI142
(lp3083
I5
aI4
asI87
(lp3084
I5
aI1
asI88
(lp3085
I1
aI2
asI89
(lp3086
I2
asI165
(lp3087
I1
aI4
asI96
(lp3088
I5
asI144
(lp3089
I5
aI3
asI98
(lp3090
I4
aI2
asI99
(lp3091
I2
aI1
asI103
(lp3092
I3
aI1
asI104
(lp3093
I1
asI107
(lp3094
I3
asI110
(lp3095
I5
aI1
asI111
(lp3096
I1
aI4
asI112
(lp3097
I4
asI116
(lp3098
I5
asI118
(lp3099
I1
asI122
(lp3100
I1
aI2
asI123
(lp3101
I2
asI200
(lp3102
I4
aI1
asa(dp3103
I192
(lp3104
I4
aI2
asI130
(lp3105
I2
asI178
(lp3106
I5
asI134
(lp3107
I1
asI8
(lp3108
I3
asI137
(lp3109
I3
asI11
(lp3110
I3
aI2
asI12
(lp3111
I2
aI3
asI141
(lp3112
I3
asI144
(lp3113
I4
asI17
(lp3114
I2
asI146
(lp3115
I3
aI1
asI147
(lp3116
I1
asI20
(lp3117
I3
aI4
asI23
(lp3118
I5
asI25
(lp3119
I1
aI2
asI26
(lp3120
I2
asI159
(lp3121
I5
aI1
asI160
(lp3122
I1
aI4
asI161
(lp3123
I4
asI34
(lp3124
I5
aI2
asI35
(lp3125
I2
aI4
asI36
(lp3126
I4
asI38
(lp3127
I4
aI2
asI39
(lp3128
I4
aI2
asI168
(lp3129
I4
aI3
asI41
(lp3130
I4
asI170
(lp3131
I3
aI4
asI43
(lp3132
I3
asI173
(lp3133
I3
aI4
asI176
(lp3134
I4
aI1
asI177
(lp3135
I1
aI5
asI50
(lp3136
I4
asI52
(lp3137
I4
aI2
asI53
(lp3138
I4
aI2
asI183
(lp3139
I2
aI1
asI180
(lp3140
I2
aI5
asI58
(lp3141
I3
aI5
asI59
(lp3142
I3
aI5
asI151
(lp3143
I1
asI189
(lp3144
I2
asI62
(lp3145
I5
aI1
asI64
(lp3146
I2
asI193
(lp3147
I2
aI5
asI67
(lp3148
I4
aI3
asI69
(lp3149
I5
asI198
(lp3150
I5
aI3
asI71
(lp3151
I2
asI200
(lp3152
I4
asI140
(lp3153
I3
aI4
asI76
(lp3154
I4
asI78
(lp3155
I2
aI1
asI79
(lp3156
I1
asI163
(lp3157
I2
asI84
(lp3158
I4
aI1
asI85
(lp3159
I1
aI5
asI86
(lp3160
I5
asI88
(lp3161
I1
asI91
(lp3162
I2
asI199
(lp3163
I3
aI4
asI187
(lp3164
I4
aI2
asI103
(lp3165
I3
aI1
asI104
(lp3166
I3
aI1
asI188
(lp3167
I2
aI5
asI109
(lp3168
I2
aI5
asI110
(lp3169
I5
asI112
(lp3170
I2
aI1
asI113
(lp3171
I1
asI169
(lp3172
I3
aI4
asI121
(lp3173
I3
aI4
asI124
(lp3174
I5
aI1
asI126
(lp3175
I3
asa(dp3176
I128
(lp3177
I2
asI3
(lp3178
I5
asI132
(lp3179
I5
asI5
(lp3180
I1
aI4
asI6
(lp3181
I4
asI137
(lp3182
I4
asI11
(lp3183
I2
asI142
(lp3184
I1
asI19
(lp3185
I2
asI196
(lp3186
I2
aI4
asI23
(lp3187
I4
asI153
(lp3188
I3
asI26
(lp3189
I2
aI1
asI156
(lp3190
I2
aI4
asI159
(lp3191
I3
aI4
asI33
(lp3192
I2
aI3
asI34
(lp3193
I2
asI163
(lp3194
I1
aI5
asI164
(lp3195
I5
asI134
(lp3196
I2
asI166
(lp3197
I2
aI1
asI176
(lp3198
I5
asI172
(lp3199
I1
asI151
(lp3200
I5
asI47
(lp3201
I3
aI5
asI48
(lp3202
I5
asI50
(lp3203
I3
asI179
(lp3204
I1
aI4
asI180
(lp3205
I4
asI53
(lp3206
I3
asI182
(lp3207
I3
aI5
asI183
(lp3208
I5
asI57
(lp3209
I3
asI60
(lp3210
I5
aI1
asI61
(lp3211
I1
aI2
asI62
(lp3212
I1
asI191
(lp3213
I3
asI66
(lp3214
I4
aI3
asI139
(lp3215
I4
asI68
(lp3216
I3
asI197
(lp3217
I4
asI71
(lp3218
I3
asI200
(lp3219
I4
aI5
asI75
(lp3220
I3
aI1
asI76
(lp3221
I1
aI4
asI190
(lp3222
I3
aI2
asI85
(lp3223
I3
aI5
asI185
(lp3224
I1
asI88
(lp3225
I3
asI94
(lp3226
I5
aI4
asI95
(lp3227
I4
aI1
asI96
(lp3228
I1
aI2
asI101
(lp3229
I2
asI178
(lp3230
I4
aI1
asI188
(lp3231
I5
asI106
(lp3232
I1
aI2
asI110
(lp3233
I4
asI112
(lp3234
I1
aI5
asI115
(lp3235
I5
aI1
asI116
(lp3236
I1
aI2
asI117
(lp3237
I2
asI121
(lp3238
I5
aI4
asI123
(lp3239
I1
aI3
asI124
(lp3240
I3
asa(dp3241
I4
(lp3242
I4
asI6
(lp3243
I3
aI5
asI136
(lp3244
I2
aI3
asI9
(lp3245
I3
aI2
asI143
(lp3246
I4
asI17
(lp3247
I2
asI20
(lp3248
I4
aI5
asI149
(lp3249
I1
asI23
(lp3250
I2
aI4
asI24
(lp3251
I4
asI153
(lp3252
I5
asI26
(lp3253
I2
asI155
(lp3254
I2
aI1
asI156
(lp3255
I1
asI159
(lp3256
I2
asI162
(lp3257
I2
asI36
(lp3258
I2
asI134
(lp3259
I5
aI3
asI166
(lp3260
I1
asI39
(lp3261
I3
aI1
asI40
(lp3262
I3
aI1
asI46
(lp3263
I1
aI4
asI47
(lp3264
I4
asI49
(lp3265
I4
asI183
(lp3266
I1
aI4
asI184
(lp3267
I4
asI57
(lp3268
I3
asI186
(lp3269
I4
aI1
asI60
(lp3270
I3
asI63
(lp3271
I5
aI4
asI192
(lp3272
I1
asI65
(lp3273
I4
aI2
asI152
(lp3274
I1
aI5
asI197
(lp3275
I3
asI71
(lp3276
I2
aI5
asI72
(lp3277
I5
asI74
(lp3278
I4
aI1
asI76
(lp3279
I2
asI82
(lp3280
I4
aI5
asI83
(lp3281
I5
aI4
asI84
(lp3282
I4
aI3
asI85
(lp3283
I3
aI1
asI86
(lp3284
I1
asI90
(lp3285
I4
aI2
asI92
(lp3286
I1
asI98
(lp3287
I5
aI4
asI99
(lp3288
I4
aI3
asI100
(lp3289
I3
aI5
asI145
(lp3290
I1
asI104
(lp3291
I1
asI188
(lp3292
I2
asI109
(lp3293
I3
aI5
asI110
(lp3294
I5
aI4
asI112
(lp3295
I5
aI2
asI113
(lp3296
I2
aI1
asI114
(lp3297
I1
asI118
(lp3298
I3
aI1
asI119
(lp3299
I1
aI3
asI148
(lp3300
I2
aI1
asI191
(lp3301
I1
aI2
asI200
(lp3302
I2
aI4
asI125
(lp3303
I4
aI2
asI126
(lp3304
I2
aI1
asa(dp3305
I2
(lp3306
I2
asI5
(lp3307
I1
asI8
(lp3308
I2
aI1
asI9
(lp3309
I1
asI139
(lp3310
I5
asI12
(lp3311
I4
asI141
(lp3312
I3
asI17
(lp3313
I4
aI5
asI18
(lp3314
I5
aI4
asI19
(lp3315
I4
aI3
asI20
(lp3316
I4
aI3
asI21
(lp3317
I3
aI2
asI150
(lp3318
I4
aI5
asI151
(lp3319
I5
aI3
asI153
(lp3320
I4
asI26
(lp3321
I1
aI5
asI27
(lp3322
I5
asI156
(lp3323
I3
aI1
asI29
(lp3324
I4
asI31
(lp3325
I2
asI160
(lp3326
I1
asI197
(lp3327
I5
aI4
asI155
(lp3328
I3
aI1
asI164
(lp3329
I4
asI38
(lp3330
I5
aI4
asI39
(lp3331
I4
aI5
asI40
(lp3332
I5
aI3
asI169
(lp3333
I2
aI1
asI42
(lp3334
I5
asI44
(lp3335
I5
aI1
asI45
(lp3336
I1
aI3
asI46
(lp3337
I3
asI136
(lp3338
I3
aI5
asI137
(lp3339
I5
aI2
asI57
(lp3340
I5
aI2
asI58
(lp3341
I5
aI2
asI59
(lp3342
I2
aI4
asI60
(lp3343
I4
asI62
(lp3344
I1
asI69
(lp3345
I2
asI199
(lp3346
I1
aI5
asI72
(lp3347
I3
aI5
asI177
(lp3348
I2
asI76
(lp3349
I3
asI80
(lp3350
I3
asI185
(lp3351
I2
aI4
asI92
(lp3352
I1
asI186
(lp3353
I4
asI99
(lp3354
I1
aI3
asI100
(lp3355
I3
asI166
(lp3356
I5
aI2
asI104
(lp3357
I4
aI1
asI105
(lp3358
I1
aI3
asI106
(lp3359
I3
asI200
(lp3360
I5
asI168
(lp3361
I5
aI2
asI114
(lp3362
I2
asI119
(lp3363
I1
asI123
(lp3364
I2
aI3
asI124
(lp3365
I3
asI170
(lp3366
I1
asa(dp3367
I129
(lp3368
I1
asI3
(lp3369
I5
asI5
(lp3370
I3
aI4
asI6
(lp3371
I4
aI3
asI193
(lp3372
I3
asI136
(lp3373
I3
asI11
(lp3374
I5
asI140
(lp3375
I5
asI13
(lp3376
I1
aI2
asI14
(lp3377
I2
asI144
(lp3378
I3
aI1
asI145
(lp3379
I1
aI4
asI18
(lp3380
I4
asI134
(lp3381
I5
asI171
(lp3382
I3
asI22
(lp3383
I4
aI1
asI23
(lp3384
I1
aI4
asI24
(lp3385
I4
asI26
(lp3386
I5
asI155
(lp3387
I4
aI1
asI28
(lp3388
I5
asI30
(lp3389
I5
aI3
asI31
(lp3390
I5
aI3
asI32
(lp3391
I5
aI3
asI33
(lp3392
I3
aI1
asI34
(lp3393
I1
aI5
asI37
(lp3394
I1
asI133
(lp3395
I1
aI5
asI167
(lp3396
I3
aI1
asI168
(lp3397
I1
asI43
(lp3398
I5
asI45
(lp3399
I1
aI2
asI175
(lp3400
I4
aI3
asI189
(lp3401
I2
asI51
(lp3402
I5
aI4
asI180
(lp3403
I4
asI53
(lp3404
I4
aI5
asI54
(lp3405
I5
aI4
asI55
(lp3406
I5
aI4
asI56
(lp3407
I4
aI3
asI57
(lp3408
I3
aI5
asI187
(lp3409
I5
asI151
(lp3410
I3
asI61
(lp3411
I5
aI1
asI62
(lp3412
I5
aI1
asI63
(lp3413
I1
aI3
asI64
(lp3414
I3
asI160
(lp3415
I4
aI1
asI196
(lp3416
I1
aI5
asI182
(lp3417
I3
aI1
asI71
(lp3418
I4
asI200
(lp3419
I1
asI73
(lp3420
I2
aI5
asI183
(lp3421
I1
asI76
(lp3422
I3
asI81
(lp3423
I5
aI2
asI83
(lp3424
I3
asI142
(lp3425
I4
asI89
(lp3426
I3
asI92
(lp3427
I4
asI95
(lp3428
I3
aI5
asI96
(lp3429
I3
aI5
asI99
(lp3430
I4
asI158
(lp3431
I5
asI101
(lp3432
I4
aI3
asI102
(lp3433
I3
aI1
asI103
(lp3434
I1
asI106
(lp3435
I4
asI108
(lp3436
I4
aI3
asI109
(lp3437
I3
aI5
asI110
(lp3438
I5
asI179
(lp3439
I2
aI4
asI112
(lp3440
I2
asI150
(lp3441
I1
aI3
asI117
(lp3442
I3
aI4
asI120
(lp3443
I4
asI148
(lp3444
I4
asI125
(lp3445
I3
asa(dp3446
I128
(lp3447
I4
aI1
asI129
(lp3448
I1
aI4
asI3
(lp3449
I5
asI132
(lp3450
I3
asI5
(lp3451
I1
asI135
(lp3452
I2
asI141
(lp3453
I1
aI3
asI142
(lp3454
I3
asI17
(lp3455
I5
asI146
(lp3456
I3
asI19
(lp3457
I5
aI3
asI20
(lp3458
I5
aI3
asI21
(lp3459
I3
aI4
asI22
(lp3460
I4
aI5
asI151
(lp3461
I5
aI1
asI24
(lp3462
I3
aI1
asI25
(lp3463
I1
aI3
asI179
(lp3464
I4
aI1
asI160
(lp3465
I1
aI4
asI33
(lp3466
I4
aI3
asI34
(lp3467
I3
aI1
asI164
(lp3468
I1
asI198
(lp3469
I1
aI5
asI167
(lp3470
I1
asI199
(lp3471
I5
asI173
(lp3472
I3
asI176
(lp3473
I5
asI178
(lp3474
I5
aI4
asI51
(lp3475
I1
aI5
asI52
(lp3476
I5
asI54
(lp3477
I5
aI3
asI55
(lp3478
I3
aI5
asI56
(lp3479
I5
asI180
(lp3480
I1
aI5
asI58
(lp3481
I2
aI4
asI59
(lp3482
I4
asI188
(lp3483
I5
aI4
asI61
(lp3484
I4
aI5
asI62
(lp3485
I5
aI3
asI63
(lp3486
I3
aI4
asI64
(lp3487
I4
aI1
asI66
(lp3488
I4
asI196
(lp3489
I4
asI70
(lp3490
I2
aI1
asI71
(lp3491
I1
asI183
(lp3492
I2
asI77
(lp3493
I3
aI4
asI80
(lp3494
I3
asI85
(lp3495
I4
asI87
(lp3496
I2
aI5
asI88
(lp3497
I2
asI152
(lp3498
I1
aI3
asI92
(lp3499
I4
asI94
(lp3500
I4
asI96
(lp3501
I5
aI1
asI97
(lp3502
I1
aI3
asI98
(lp3503
I3
asI102
(lp3504
I1
asI145
(lp3505
I2
aI3
asI161
(lp3506
I1
asI108
(lp3507
I1
asI191
(lp3508
I2
aI4
asI111
(lp3509
I4
asI113
(lp3510
I3
aI4
asI114
(lp3511
I4
aI3
asI190
(lp3512
I4
aI2
asI118
(lp3513
I2
aI4
asI119
(lp3514
I4
asI153
(lp3515
I1
asI123
(lp3516
I3
asI126
(lp3517
I4
asI149
(lp3518
I5
aI1
asa(dp3519
I128
(lp3520
I4
aI3
asI3
(lp3521
I5
aI1
asI4
(lp3522
I1
aI5
asI5
(lp3523
I1
asI135
(lp3524
I1
aI4
asI8
(lp3525
I2
aI4
asI9
(lp3526
I4
asI138
(lp3527
I3
aI5
asI11
(lp3528
I2
asI141
(lp3529
I4
asI144
(lp3530
I2
asI21
(lp3531
I2
asI25
(lp3532
I3
asI156
(lp3533
I2
asI29
(lp3534
I3
aI5
asI30
(lp3535
I5
asI32
(lp3536
I2
asI161
(lp3537
I3
aI2
asI162
(lp3538
I3
asI35
(lp3539
I1
asI39
(lp3540
I1
aI3
asI40
(lp3541
I3
asI170
(lp3542
I1
asI48
(lp3543
I3
asI177
(lp3544
I3
asI181
(lp3545
I5
aI1
asI182
(lp3546
I1
aI3
asI55
(lp3547
I2
asI59
(lp3548
I2
asI190
(lp3549
I1
aI3
asI194
(lp3550
I2
asI139
(lp3551
I5
asI70
(lp3552
I3
aI2
asI74
(lp3553
I1
aI5
asI183
(lp3554
I3
asI78
(lp3555
I3
asI82
(lp3556
I3
asI85
(lp3557
I2
aI4
asI89
(lp3558
I4
asI92
(lp3559
I4
aI3
asI93
(lp3560
I3
aI1
asI94
(lp3561
I1
aI5
asI97
(lp3562
I2
aI1
asI98
(lp3563
I1
asI103
(lp3564
I3
aI4
asI104
(lp3565
I3
asI112
(lp3566
I2
asI124
(lp3567
I3
aI5
asI125
(lp3568
I3
aI5
asa(dp3569
I196
(lp3570
I1
asI6
(lp3571
I4
aI1
asI7
(lp3572
I1
aI5
asI8
(lp3573
I5
asI10
(lp3574
I3
aI5
asI141
(lp3575
I5
aI1
asI142
(lp3576
I5
aI1
asI15
(lp3577
I1
asI144
(lp3578
I4
asI18
(lp3579
I2
asI147
(lp3580
I3
asI22
(lp3581
I1
asI151
(lp3582
I4
aI2
asI152
(lp3583
I2
aI1
asI153
(lp3584
I1
asI28
(lp3585
I1
aI2
asI29
(lp3586
I2
asI159
(lp3587
I4
aI3
asI32
(lp3588
I3
aI5
asI33
(lp3589
I3
asI195
(lp3590
I1
aI5
asI163
(lp3591
I2
asI36
(lp3592
I4
asI134
(lp3593
I5
asI166
(lp3594
I3
aI2
asI177
(lp3595
I2
asI199
(lp3596
I3
aI4
asI45
(lp3597
I1
asI48
(lp3598
I5
aI2
asI49
(lp3599
I2
aI4
asI50
(lp3600
I2
asI53
(lp3601
I1
asI60
(lp3602
I2
asI138
(lp3603
I2
asI190
(lp3604
I1
aI2
asI181
(lp3605
I2
asI65
(lp3606
I4
aI5
asI66
(lp3607
I5
aI4
asI67
(lp3608
I4
aI2
asI68
(lp3609
I2
aI3
asI161
(lp3610
I5
aI3
asI200
(lp3611
I4
asI75
(lp3612
I1
aI3
asI143
(lp3613
I1
aI4
asI80
(lp3614
I3
aI4
asI81
(lp3615
I4
aI3
asI86
(lp3616
I3
aI5
asI87
(lp3617
I5
aI4
asI89
(lp3618
I4
aI1
asI90
(lp3619
I1
aI5
asI91
(lp3620
I5
asI93
(lp3621
I2
asI98
(lp3622
I1
aI2
asI102
(lp3623
I2
asI105
(lp3624
I1
asI109
(lp3625
I4
asI173
(lp3626
I2
asI113
(lp3627
I2
asI189
(lp3628
I3
aI1
asI160
(lp3629
I3
aI5
asI136
(lp3630
I4
asI124
(lp3631
I4
asI126
(lp3632
I2
aI3
asI127
(lp3633
I2
asa(dp3634
I128
(lp3635
I3
aI4
asI129
(lp3636
I3
aI4
asI2
(lp3637
I2
asI132
(lp3638
I3
aI1
asI5
(lp3639
I4
aI3
asI6
(lp3640
I3
aI2
asI137
(lp3641
I3
asI11
(lp3642
I3
asI140
(lp3643
I2
aI1
asI141
(lp3644
I1
asI18
(lp3645
I5
aI1
asI20
(lp3646
I2
asI154
(lp3647
I4
aI1
asI24
(lp3648
I4
asI196
(lp3649
I4
aI3
asI26
(lp3650
I2
asI29
(lp3651
I5
asI31
(lp3652
I2
asI133
(lp3653
I1
aI2
asI162
(lp3654
I5
aI1
asI163
(lp3655
I1
aI5
asI36
(lp3656
I3
asI166
(lp3657
I2
aI1
asI167
(lp3658
I1
asI42
(lp3659
I3
asI173
(lp3660
I2
asI47
(lp3661
I2
aI5
asI48
(lp3662
I5
asI200
(lp3663
I1
aI4
asI50
(lp3664
I2
aI1
asI51
(lp3665
I2
asI180
(lp3666
I1
aI2
asI181
(lp3667
I2
asI184
(lp3668
I4
asI186
(lp3669
I5
aI4
asI159
(lp3670
I1
aI5
asI188
(lp3671
I4
aI5
asI190
(lp3672
I1
aI2
asI191
(lp3673
I2
asI160
(lp3674
I5
asI66
(lp3675
I4
aI2
asI67
(lp3676
I2
aI3
asI68
(lp3677
I3
asI197
(lp3678
I3
aI4
asI198
(lp3679
I4
aI5
asI71
(lp3680
I4
aI1
asI194
(lp3681
I4
asI75
(lp3682
I2
asI79
(lp3683
I4
asI83
(lp3684
I3
asI86
(lp3685
I3
aI4
asI87
(lp3686
I4
asI164
(lp3687
I5
asI91
(lp3688
I3
aI2
asI148
(lp3689
I3
aI1
asI187
(lp3690
I4
aI5
asI100
(lp3691
I3
asI103
(lp3692
I5
asI105
(lp3693
I5
asI107
(lp3694
I3
asI157
(lp3695
I5
asI115
(lp3696
I1
asI118
(lp3697
I1
asI121
(lp3698
I4
aI5
asI122
(lp3699
I5
aI2
asI124
(lp3700
I5
asI170
(lp3701
I3
asI126
(lp3702
I5
asa(dp3703
I2
(lp3704
I2
asI133
(lp3705
I1
aI3
asI8
(lp3706
I4
asI10
(lp3707
I5
asI12
(lp3708
I2
aI1
asI142
(lp3709
I5
asI144
(lp3710
I1
asI17
(lp3711
I4
asI148
(lp3712
I3
aI1
asI149
(lp3713
I1
asI22
(lp3714
I4
asI24
(lp3715
I2
asI27
(lp3716
I1
asI156
(lp3717
I2
aI3
asI157
(lp3718
I3
asI160
(lp3719
I1
asI33
(lp3720
I1
aI3
asI163
(lp3721
I3
asI177
(lp3722
I2
aI4
asI168
(lp3723
I2
aI1
asI169
(lp3724
I1
asI42
(lp3725
I3
asI173
(lp3726
I3
aI4
asI47
(lp3727
I4
asI49
(lp3728
I1
asI178
(lp3729
I4
asI180
(lp3730
I3
aI4
asI181
(lp3731
I4
asI55
(lp3732
I5
asI57
(lp3733
I1
aI3
asI58
(lp3734
I3
asI138
(lp3735
I2
asI63
(lp3736
I4
asI65
(lp3737
I1
asI69
(lp3738
I2
asI200
(lp3739
I5
asI73
(lp3740
I1
asI183
(lp3741
I3
asI77
(lp3742
I4
asI82
(lp3743
I1
asI87
(lp3744
I3
asI90
(lp3745
I4
aI1
asI92
(lp3746
I5
asI94
(lp3747
I5
aI2
asI95
(lp3748
I2
aI3
asI96
(lp3749
I3
asI99
(lp3750
I1
asI102
(lp3751
I5
aI3
asI104
(lp3752
I5
asI106
(lp3753
I1
aI2
asI107
(lp3754
I2
asI110
(lp3755
I5
asI189
(lp3756
I4
asI112
(lp3757
I5
aI1
asI114
(lp3758
I1
asI117
(lp3759
I2
aI4
asI122
(lp3760
I4
aI2
asa(dp3761
I128
(lp3762
I1
asI3
(lp3763
I5
aI1
asI5
(lp3764
I4
asI7
(lp3765
I4
aI2
asI136
(lp3766
I3
aI1
asI137
(lp3767
I3
aI1
asI11
(lp3768
I4
aI3
asI13
(lp3769
I3
aI5
asI14
(lp3770
I5
aI4
asI143
(lp3771
I4
asI16
(lp3772
I3
aI1
asI145
(lp3773
I3
asI149
(lp3774
I4
asI151
(lp3775
I3
aI4
asI24
(lp3776
I2
aI3
asI156
(lp3777
I5
asI29
(lp3778
I2
aI3
asI30
(lp3779
I2
asI36
(lp3780
I2
asI165
(lp3781
I2
asI135
(lp3782
I5
aI3
asI44
(lp3783
I2
asI173
(lp3784
I2
asI176
(lp3785
I4
aI2
asI177
(lp3786
I2
aI4
asI178
(lp3787
I2
asI52
(lp3788
I1
asI158
(lp3789
I1
asI58
(lp3790
I5
aI1
asI59
(lp3791
I1
aI2
asI60
(lp3792
I2
asI189
(lp3793
I1
asI63
(lp3794
I2
aI5
asI64
(lp3795
I5
asI181
(lp3796
I2
asI66
(lp3797
I3
asI152
(lp3798
I3
aI4
asI198
(lp3799
I1
aI2
asI71
(lp3800
I5
asI73
(lp3801
I3
aI2
asI74
(lp3802
I3
asI80
(lp3803
I5
asI82
(lp3804
I1
asI85
(lp3805
I1
asI88
(lp3806
I5
aI1
asI89
(lp3807
I5
aI1
asI90
(lp3808
I1
aI3
asI91
(lp3809
I3
asI199
(lp3810
I1
asI187
(lp3811
I5
asI102
(lp3812
I2
asI107
(lp3813
I3
aI1
asI108
(lp3814
I1
aI5
asI112
(lp3815
I2
asI118
(lp3816
I4
aI1
asI120
(lp3817
I4
aI1
asI121
(lp3818
I1
aI4
asI125
(lp3819
I5
aI4
asI126
(lp3820
I4
aI2
asI127
(lp3821
I2
aI1
asa(dp3822
I5
(lp3823
I5
aI3
asI6
(lp3824
I3
aI5
asI7
(lp3825
I5
asI136
(lp3826
I1
asI9
(lp3827
I3
asI140
(lp3828
I3
asI144
(lp3829
I3
aI2
asI152
(lp3830
I1
asI18
(lp3831
I1
asI21
(lp3832
I4
asI24
(lp3833
I5
aI1
asI25
(lp3834
I1
aI3
asI26
(lp3835
I3
asI156
(lp3836
I5
aI3
asI157
(lp3837
I3
aI5
asI30
(lp3838
I2
asI133
(lp3839
I3
aI5
asI161
(lp3840
I2
asI34
(lp3841
I5
asI36
(lp3842
I3
aI4
asI39
(lp3843
I2
asI44
(lp3844
I3
aI4
asI174
(lp3845
I2
asI49
(lp3846
I2
asI178
(lp3847
I1
aI3
asI179
(lp3848
I3
asI52
(lp3849
I4
asI158
(lp3850
I3
aI5
asI54
(lp3851
I5
asI56
(lp3852
I1
aI3
asI57
(lp3853
I3
asI187
(lp3854
I1
aI5
asI188
(lp3855
I5
asI190
(lp3856
I1
asI64
(lp3857
I3
asI193
(lp3858
I1
aI3
asI194
(lp3859
I3
asI67
(lp3860
I3
asI182
(lp3861
I5
aI3
asI70
(lp3862
I2
aI1
asI199
(lp3863
I5
asI167
(lp3864
I3
asI177
(lp3865
I5
aI1
asI74
(lp3866
I5
aI1
asI75
(lp3867
I1
aI2
asI76
(lp3868
I2
asI80
(lp3869
I4
asI184
(lp3870
I3
asI82
(lp3871
I3
aI2
asI83
(lp3872
I2
asI86
(lp3873
I4
aI1
asI88
(lp3874
I3
asI91
(lp3875
I3
asI94
(lp3876
I4
asI101
(lp3877
I5
asI103
(lp3878
I1
aI5
asI104
(lp3879
I1
asI107
(lp3880
I4
aI1
asI108
(lp3881
I1
aI5
asI109
(lp3882
I5
asI111
(lp3883
I1
asI115
(lp3884
I4
asI117
(lp3885
I2
asI121
(lp3886
I1
asI124
(lp3887
I5
asI126
(lp3888
I1
asa(dp3889
I192
(lp3890
I3
aI5
asI2
(lp3891
I1
aI5
asI3
(lp3892
I5
asI5
(lp3893
I5
asI134
(lp3894
I3
asI7
(lp3895
I4
aI2
asI9
(lp3896
I2
aI4
asI10
(lp3897
I4
asI139
(lp3898
I4
aI3
asI12
(lp3899
I5
aI1
asI13
(lp3900
I5
aI1
asI14
(lp3901
I1
aI4
asI15
(lp3902
I4
asI141
(lp3903
I3
aI4
asI145
(lp3904
I5
asI18
(lp3905
I1
asI147
(lp3906
I1
asI21
(lp3907
I5
aI2
asI23
(lp3908
I1
asI27
(lp3909
I1
aI2
asI157
(lp3910
I5
asI159
(lp3911
I2
aI4
asI160
(lp3912
I4
asI33
(lp3913
I3
asI162
(lp3914
I1
asI38
(lp3915
I2
asI41
(lp3916
I1
aI4
asI42
(lp3917
I4
asI171
(lp3918
I1
aI4
asI172
(lp3919
I4
asI174
(lp3920
I4
asI48
(lp3921
I2
aI1
asI49
(lp3922
I1
asI178
(lp3923
I5
asI180
(lp3924
I1
aI5
asI181
(lp3925
I5
asI137
(lp3926
I5
asI61
(lp3927
I1
asI190
(lp3928
I5
asI64
(lp3929
I2
asI69
(lp3930
I3
asI198
(lp3931
I4
aI2
asI199
(lp3932
I4
aI2
asI200
(lp3933
I2
aI1
asI140
(lp3934
I3
aI4
asI75
(lp3935
I3
aI2
asI76
(lp3936
I2
aI4
asI79
(lp3937
I1
aI3
asI80
(lp3938
I3
asI83
(lp3939
I1
aI5
asI84
(lp3940
I5
asI86
(lp3941
I4
asI89
(lp3942
I2
aI4
asI90
(lp3943
I4
asI92
(lp3944
I2
asI95
(lp3945
I5
asI97
(lp3946
I5
asI99
(lp3947
I2
asI104
(lp3948
I2
aI1
asI105
(lp3949
I2
asI116
(lp3950
I3
aI2
asI120
(lp3951
I4
asI122
(lp3952
I4
aI3
asI124
(lp3953
I1
aI4
asI183
(lp3954
I1
asI127
(lp3955
I1
asa(dp3956
I3
(lp3957
I5
aI4
asI4
(lp3958
I4
aI1
asI5
(lp3959
I1
aI2
asI135
(lp3960
I1
asI10
(lp3961
I4
asI12
(lp3962
I2
asI141
(lp3963
I1
asI161
(lp3964
I5
aI4
asI16
(lp3965
I3
aI4
asI145
(lp3966
I1
aI4
asI148
(lp3967
I5
aI2
asI150
(lp3968
I5
asI152
(lp3969
I4
asI154
(lp3970
I5
asI28
(lp3971
I5
asI157
(lp3972
I3
aI1
asI30
(lp3973
I2
aI5
asI31
(lp3974
I5
asI33
(lp3975
I4
asI162
(lp3976
I4
aI2
asI163
(lp3977
I2
aI4
asI164
(lp3978
I4
asI166
(lp3979
I1
aI3
asI40
(lp3980
I1
aI3
asI156
(lp3981
I3
aI1
asI199
(lp3982
I3
aI5
asI174
(lp3983
I3
aI1
asI49
(lp3984
I3
aI5
asI50
(lp3985
I5
aI1
asI52
(lp3986
I4
asI54
(lp3987
I5
aI3
asI55
(lp3988
I3
aI2
asI56
(lp3989
I3
aI2
asI188
(lp3990
I4
asI61
(lp3991
I5
asI63
(lp3992
I3
asI197
(lp3993
I5
aI3
asI70
(lp3994
I3
aI4
asI71
(lp3995
I4
aI2
asI200
(lp3996
I5
asI73
(lp3997
I2
aI1
asI74
(lp3998
I1
asI183
(lp3999
I1
asI80
(lp4000
I3
aI1
asI81
(lp4001
I1
aI2
asI86
(lp4002
I4
asI88
(lp4003
I2
asI91
(lp4004
I2
asI99
(lp4005
I5
asI101
(lp4006
I2
asI105
(lp4007
I1
aI3
asI111
(lp4008
I5
asI113
(lp4009
I5
aI2
asI140
(lp4010
I1
aI5
asI115
(lp4011
I1
asI119
(lp4012
I3
asI126
(lp4013
I4
asa(dp4014
I129
(lp4015
I1
asI2
(lp4016
I2
asI133
(lp4017
I2
asI136
(lp4018
I4
asI9
(lp4019
I4
aI2
asI10
(lp4020
I2
aI3
asI192
(lp4021
I2
asI15
(lp4022
I2
asI144
(lp4023
I2
asI18
(lp4024
I5
asI20
(lp4025
I4
aI1
asI22
(lp4026
I1
aI4
asI152
(lp4027
I5
asI25
(lp4028
I3
asI154
(lp4029
I3
aI2
asI33
(lp4030
I3
aI1
asI34
(lp4031
I1
asI166
(lp4032
I1
aI3
asI167
(lp4033
I3
asI171
(lp4034
I3
aI4
asI49
(lp4035
I4
aI3
asI53
(lp4036
I2
asI138
(lp4037
I4
asI57
(lp4038
I4
asI59
(lp4039
I5
aI3
asI60
(lp4040
I3
aI5
asI61
(lp4041
I3
asI190
(lp4042
I5
asI64
(lp4043
I5
aI1
asI65
(lp4044
I1
aI4
asI66
(lp4045
I4
asI195
(lp4046
I1
asI69
(lp4047
I2
asI199
(lp4048
I4
asI72
(lp4049
I3
aI2
asI177
(lp4050
I1
asI81
(lp4051
I3
aI1
asI82
(lp4052
I1
aI3
asI185
(lp4053
I5
asI94
(lp4054
I4
aI3
asI96
(lp4055
I3
aI1
asI97
(lp4056
I1
aI3
asI187
(lp4057
I3
aI5
asI104
(lp4058
I1
asI188
(lp4059
I5
aI1
asI112
(lp4060
I5
aI3
asI113
(lp4061
I3
aI5
asI114
(lp4062
I5
aI3
asI116
(lp4063
I2
asI120
(lp4064
I4
aI5
asI148
(lp4065
I3
asI123
(lp4066
I2
aI4
asI126
(lp4067
I1
aI5
asI127
(lp4068
I5
asa(dp4069
I172
(lp4070
I3
asI129
(lp4071
I5
aI4
asI2
(lp4072
I3
asI131
(lp4073
I4
aI1
asI132
(lp4074
I4
aI1
asI133
(lp4075
I4
aI1
asI6
(lp4076
I1
aI3
asI7
(lp4077
I1
asI136
(lp4078
I1
aI4
asI137
(lp4079
I1
asI12
(lp4080
I3
asI130
(lp4081
I4
aI1
asI145
(lp4082
I5
asI167
(lp4083
I5
aI2
asI147
(lp4084
I5
asI21
(lp4085
I2
asI151
(lp4086
I3
asI25
(lp4087
I2
asI179
(lp4088
I2
asI155
(lp4089
I3
aI1
asI156
(lp4090
I1
aI3
asI29
(lp4091
I1
asI197
(lp4092
I2
aI3
asI32
(lp4093
I3
aI1
asI162
(lp4094
I5
aI1
asI164
(lp4095
I1
aI5
asI134
(lp4096
I4
aI1
asI39
(lp4097
I5
aI2
asI40
(lp4098
I2
aI3
asI41
(lp4099
I3
asI135
(lp4100
I4
aI1
asI44
(lp4101
I2
asI47
(lp4102
I3
asI51
(lp4103
I1
aI4
asI57
(lp4104
I3
asI189
(lp4105
I4
aI2
asI169
(lp4106
I3
asI198
(lp4107
I3
asI66
(lp4108
I5
aI3
asI67
(lp4109
I5
aI3
asI68
(lp4110
I5
aI3
asI69
(lp4111
I3
aI5
asI70
(lp4112
I5
aI3
asI72
(lp4113
I1
asI75
(lp4114
I2
aI4
asI76
(lp4115
I2
asI80
(lp4116
I5
asI82
(lp4117
I3
asI85
(lp4118
I1
asI89
(lp4119
I2
asI95
(lp4120
I4
aI1
asI96
(lp4121
I1
aI3
asI165
(lp4122
I5
asI100
(lp4123
I2
aI5
asI103
(lp4124
I3
asI196
(lp4125
I5
aI2
asI107
(lp4126
I3
aI2
asI108
(lp4127
I3
aI2
asI115
(lp4128
I1
aI4
asI116
(lp4129
I1
asI190
(lp4130
I2
aI1
asI119
(lp4131
I1
asI122
(lp4132
I2
aI3
asI123
(lp4133
I3
asI149
(lp4134
I4
asa(dp4135
I2
(lp4136
I2
asI133
(lp4137
I1
aI2
asI7
(lp4138
I2
aI5
asI10
(lp4139
I2
aI4
asI11
(lp4140
I2
asI130
(lp4141
I1
asI14
(lp4142
I5
aI4
asI15
(lp4143
I5
aI4
asI16
(lp4144
I4
aI2
asI17
(lp4145
I2
aI4
asI18
(lp4146
I4
asI147
(lp4147
I2
asI153
(lp4148
I4
asI25
(lp4149
I2
asI155
(lp4150
I2
asI29
(lp4151
I3
asI32
(lp4152
I5
aI2
asI161
(lp4153
I2
asI34
(lp4154
I3
asI166
(lp4155
I4
asI168
(lp4156
I2
aI1
asI41
(lp4157
I4
aI3
asI42
(lp4158
I3
aI2
asI43
(lp4159
I2
aI5
asI173
(lp4160
I3
asI47
(lp4161
I3
aI4
asI48
(lp4162
I4
asI177
(lp4163
I3
aI4
asI50
(lp4164
I1
aI2
asI51
(lp4165
I2
asI183
(lp4166
I1
asI59
(lp4167
I5
asI61
(lp4168
I2
asI190
(lp4169
I3
aI2
asI196
(lp4170
I2
aI3
asI197
(lp4171
I2
asI70
(lp4172
I2
aI3
asI76
(lp4173
I1
aI3
asI82
(lp4174
I5
aI3
asI84
(lp4175
I3
asI142
(lp4176
I2
asI91
(lp4177
I1
aI5
asI94
(lp4178
I5
asI96
(lp4179
I1
asI101
(lp4180
I2
asI106
(lp4181
I2
aI1
asI107
(lp4182
I1
asI189
(lp4183
I3
aI2
asI113
(lp4184
I5
asI115
(lp4185
I5
asI117
(lp4186
I2
asa(dp4187
I129
(lp4188
I2
asI2
(lp4189
I5
aI2
asI3
(lp4190
I5
aI2
asI4
(lp4191
I2
aI5
asI5
(lp4192
I5
asI7
(lp4193
I1
aI5
asI136
(lp4194
I5
asI10
(lp4195
I4
asI12
(lp4196
I4
asI141
(lp4197
I3
aI5
asI14
(lp4198
I1
asI144
(lp4199
I2
asI149
(lp4200
I1
aI3
asI22
(lp4201
I2
aI4
asI23
(lp4202
I2
asI196
(lp4203
I3
aI1
asI26
(lp4204
I2
aI3
asI150
(lp4205
I1
asI133
(lp4206
I2
asI160
(lp4207
I5
asI162
(lp4208
I5
asI164
(lp4209
I5
aI3
asI165
(lp4210
I3
aI5
asI38
(lp4211
I1
aI5
asI39
(lp4212
I5
asI168
(lp4213
I2
aI4
asI41
(lp4214
I5
asI43
(lp4215
I2
aI4
asI44
(lp4216
I4
asI174
(lp4217
I4
aI1
asI175
(lp4218
I1
aI3
asI176
(lp4219
I3
asI49
(lp4220
I5
aI1
asI51
(lp4221
I2
asI54
(lp4222
I2
asI58
(lp4223
I1
asI187
(lp4224
I1
aI2
asI138
(lp4225
I2
aI5
asI62
(lp4226
I1
asI67
(lp4227
I3
aI4
asI68
(lp4228
I4
asI197
(lp4229
I1
aI5
asI70
(lp4230
I3
asI200
(lp4231
I4
aI2
asI74
(lp4232
I4
aI5
asI76
(lp4233
I5
aI4
asI77
(lp4234
I5
aI4
asI78
(lp4235
I4
aI1
asI79
(lp4236
I1
aI2
asI80
(lp4237
I2
asI89
(lp4238
I4
aI1
asI90
(lp4239
I4
aI1
asI94
(lp4240
I4
aI3
asI95
(lp4241
I3
aI1
asI96
(lp4242
I3
asI166
(lp4243
I5
asI102
(lp4244
I4
asI105
(lp4245
I5
asI171
(lp4246
I2
asI107
(lp4247
I3
aI1
asI108
(lp4248
I1
asI111
(lp4249
I1
aI4
asI114
(lp4250
I5
aI3
asI116
(lp4251
I3
aI1
asI169
(lp4252
I4
asI121
(lp4253
I2
aI3
asI122
(lp4254
I3
asa(dp4255
I171
(lp4256
I4
asI5
(lp4257
I3
asI137
(lp4258
I1
aI5
asI138
(lp4259
I5
asI140
(lp4260
I2
aI4
asI141
(lp4261
I4
asI14
(lp4262
I5
aI1
asI15
(lp4263
I1
aI2
asI16
(lp4264
I2
asI146
(lp4265
I3
aI2
asI147
(lp4266
I2
aI4
asI22
(lp4267
I2
aI3
asI196
(lp4268
I5
aI1
asI26
(lp4269
I4
aI2
asI27
(lp4270
I2
aI5
asI28
(lp4271
I5
asI154
(lp4272
I4
aI3
asI30
(lp4273
I2
aI1
asI31
(lp4274
I1
asI155
(lp4275
I3
aI4
asI36
(lp4276
I5
asI38
(lp4277
I5
asI167
(lp4278
I2
asI40
(lp4279
I1
asI156
(lp4280
I4
asI43
(lp4281
I5
asI45
(lp4282
I2
asI177
(lp4283
I1
aI5
asI178
(lp4284
I5
asI51
(lp4285
I1
aI4
asI180
(lp4286
I5
aI3
asI54
(lp4287
I3
asI183
(lp4288
I1
asI57
(lp4289
I1
aI4
asI58
(lp4290
I1
asI61
(lp4291
I4
asI190
(lp4292
I4
asI63
(lp4293
I5
aI3
asI65
(lp4294
I5
aI3
asI66
(lp4295
I5
aI3
asI67
(lp4296
I3
aI1
asI68
(lp4297
I3
aI1
asI182
(lp4298
I3
aI1
asI198
(lp4299
I1
asI72
(lp4300
I3
asI143
(lp4301
I4
asI173
(lp4302
I4
aI3
asI82
(lp4303
I5
aI1
asI163
(lp4304
I4
aI1
asI84
(lp4305
I4
asI86
(lp4306
I1
aI4
asI186
(lp4307
I1
asI164
(lp4308
I1
aI5
asI90
(lp4309
I1
aI4
asI91
(lp4310
I4
asI93
(lp4311
I2
aI5
asI94
(lp4312
I5
asI96
(lp4313
I1
asI99
(lp4314
I4
aI3
asI100
(lp4315
I3
aI4
asI101
(lp4316
I4
aI3
asI106
(lp4317
I2
asI111
(lp4318
I2
asI115
(lp4319
I2
asI119
(lp4320
I4
aI1
asI120
(lp4321
I1
aI2
asI121
(lp4322
I2
asI125
(lp4323
I4
aI3
asI126
(lp4324
I3
aI2
asI127
(lp4325
I3
aI2
asa(dp4326
I129
(lp4327
I3
asI2
(lp4328
I4
aI5
asI4
(lp4329
I3
aI1
asI5
(lp4330
I3
asI135
(lp4331
I4
asI9
(lp4332
I2
asI13
(lp4333
I3
asI142
(lp4334
I3
asI17
(lp4335
I2
aI5
asI18
(lp4336
I5
asI147
(lp4337
I4
aI1
asI20
(lp4338
I4
aI5
asI21
(lp4339
I5
aI2
asI22
(lp4340
I2
aI3
asI23
(lp4341
I2
asI152
(lp4342
I4
asI154
(lp4343
I5
aI3
asI156
(lp4344
I5
aI4
asI30
(lp4345
I5
aI4
asI31
(lp4346
I4
aI3
asI32
(lp4347
I3
aI2
asI33
(lp4348
I2
asI162
(lp4349
I5
asI164
(lp4350
I3
aI4
asI165
(lp4351
I4
aI3
asI133
(lp4352
I5
aI3
asI167
(lp4353
I5
aI3
asI169
(lp4354
I5
aI3
asI171
(lp4355
I5
asI44
(lp4356
I3
asI173
(lp4357
I5
asI175
(lp4358
I3
asI49
(lp4359
I1
aI5
asI50
(lp4360
I5
asI179
(lp4361
I3
aI1
asI52
(lp4362
I5
aI2
asI53
(lp4363
I2
aI5
asI54
(lp4364
I5
asI137
(lp4365
I1
asI56
(lp4366
I3
aI1
asI180
(lp4367
I1
asI159
(lp4368
I5
aI4
asI189
(lp4369
I1
asI63
(lp4370
I5
asI65
(lp4371
I1
asI197
(lp4372
I2
asI71
(lp4373
I1
aI4
asI72
(lp4374
I4
asI74
(lp4375
I1
aI4
asI160
(lp4376
I4
aI3
asI78
(lp4377
I5
aI4
asI79
(lp4378
I4
aI1
asI80
(lp4379
I1
aI4
asI184
(lp4380
I2
aI5
asI83
(lp4381
I4
asI85
(lp4382
I5
asI87
(lp4383
I2
asI92
(lp4384
I1
asI95
(lp4385
I1
asI187
(lp4386
I5
asI158
(lp4387
I4
aI5
asI145
(lp4388
I5
aI4
asI105
(lp4389
I3
aI1
asI106
(lp4390
I1
aI5
asI109
(lp4391
I3
asI115
(lp4392
I2
asI185
(lp4393
I5
asI161
(lp4394
I3
aI5
asI118
(lp4395
I1
asI148
(lp4396
I1
aI2
asI122
(lp4397
I2
aI5
asI125
(lp4398
I1
aI2
asI149
(lp4399
I2
asa(dp4400
I130
(lp4401
I1
asI4
(lp4402
I1
asI179
(lp4403
I3
aI1
asI134
(lp4404
I2
asI137
(lp4405
I1
aI4
asI151
(lp4406
I4
asI140
(lp4407
I2
asI14
(lp4408
I4
asI143
(lp4409
I1
aI4
asI144
(lp4410
I1
asI17
(lp4411
I1
aI2
asI18
(lp4412
I1
asI147
(lp4413
I2
asI23
(lp4414
I5
aI4
asI24
(lp4415
I4
aI5
asI25
(lp4416
I5
aI2
asI27
(lp4417
I1
asI197
(lp4418
I3
aI4
asI32
(lp4419
I5
asI34
(lp4420
I1
asI38
(lp4421
I4
aI3
asI167
(lp4422
I5
aI3
asI40
(lp4423
I2
asI169
(lp4424
I2
aI5
asI44
(lp4425
I1
aI3
asI49
(lp4426
I3
aI4
asI50
(lp4427
I3
asI172
(lp4428
I2
aI3
asI53
(lp4429
I5
asI55
(lp4430
I5
asI184
(lp4431
I3
asI57
(lp4432
I5
aI1
asI58
(lp4433
I1
aI3
asI59
(lp4434
I3
asI191
(lp4435
I5
aI4
asI193
(lp4436
I4
aI2
asI194
(lp4437
I2
aI4
asI67
(lp4438
I5
aI4
asI68
(lp4439
I4
aI2
asI69
(lp4440
I2
aI4
asI70
(lp4441
I4
asI73
(lp4442
I4
asI75
(lp4443
I1
asI79
(lp4444
I3
aI5
asI82
(lp4445
I1
aI4
asI177
(lp4446
I5
asI87
(lp4447
I4
aI1
asI89
(lp4448
I4
asI91
(lp4449
I1
asI94
(lp4450
I5
aI2
asI95
(lp4451
I2
aI5
asI96
(lp4452
I5
asI98
(lp4453
I4
aI5
asI100
(lp4454
I5
aI1
asI101
(lp4455
I1
aI4
asI102
(lp4456
I4
asI108
(lp4457
I5
asI110
(lp4458
I1
asI114
(lp4459
I2
asI117
(lp4460
I5
asI119
(lp4461
I3
aI4
asI120
(lp4462
I4
asI122
(lp4463
I4
aI5
asI123
(lp4464
I5
aI2
asI124
(lp4465
I2
aI3
asI125
(lp4466
I3
asa(dp4467
I130
(lp4468
I4
asI199
(lp4469
I4
asI178
(lp4470
I3
asI5
(lp4471
I5
asI134
(lp4472
I1
asI7
(lp4473
I3
asI10
(lp4474
I1
aI4
asI11
(lp4475
I4
asI140
(lp4476
I1
asI13
(lp4477
I2
asI143
(lp4478
I3
aI2
asI144
(lp4479
I2
aI5
asI152
(lp4480
I2
aI1
asI148
(lp4481
I5
aI2
asI196
(lp4482
I5
asI150
(lp4483
I5
asI153
(lp4484
I1
asI24
(lp4485
I5
aI3
asI25
(lp4486
I3
aI4
asI26
(lp4487
I4
aI3
asI184
(lp4488
I2
asI31
(lp4489
I5
asI33
(lp4490
I4
asI162
(lp4491
I1
aI4
asI35
(lp4492
I1
aI3
asI36
(lp4493
I3
asI41
(lp4494
I4
asI171
(lp4495
I5
asI45
(lp4496
I5
asI47
(lp4497
I1
aI4
asI48
(lp4498
I4
asI50
(lp4499
I5
aI4
asI51
(lp4500
I4
aI2
asI52
(lp4501
I2
aI3
asI53
(lp4502
I3
asI56
(lp4503
I2
asI188
(lp4504
I5
asI61
(lp4505
I4
asI190
(lp4506
I2
aI1
asI181
(lp4507
I2
aI5
asI64
(lp4508
I3
asI68
(lp4509
I2
aI5
asI198
(lp4510
I1
aI4
asI71
(lp4511
I2
asI74
(lp4512
I4
aI1
asI75
(lp4513
I1
aI2
asI76
(lp4514
I2
asI79
(lp4515
I2
aI3
asI80
(lp4516
I2
asI173
(lp4517
I3
aI5
asI86
(lp4518
I1
aI2
asI87
(lp4519
I2
asI176
(lp4520
I4
asI169
(lp4521
I4
asI92
(lp4522
I5
asI94
(lp4523
I4
asI96
(lp4524
I3
aI5
asI100
(lp4525
I2
aI4
asI101
(lp4526
I4
asI103
(lp4527
I2
aI4
asI104
(lp4528
I4
asI106
(lp4529
I2
asI111
(lp4530
I1
asI114
(lp4531
I4
asI119
(lp4532
I5
aI2
asI120
(lp4533
I2
aI4
asI121
(lp4534
I4
asI123
(lp4535
I1
aI4
asI124
(lp4536
I4
asa(dp4537
I2
(lp4538
I5
aI3
asI3
(lp4539
I3
aI5
asI4
(lp4540
I5
asI6
(lp4541
I5
aI2
asI135
(lp4542
I4
asI8
(lp4543
I3
asI137
(lp4544
I5
asI139
(lp4545
I3
aI5
asI130
(lp4546
I3
aI4
asI142
(lp4547
I2
asI18
(lp4548
I4
aI5
asI131
(lp4549
I4
asI20
(lp4550
I5
aI1
asI21
(lp4551
I1
aI2
asI22
(lp4552
I2
asI151
(lp4553
I2
asI27
(lp4554
I2
aI1
asI28
(lp4555
I1
asI157
(lp4556
I5
aI2
asI158
(lp4557
I5
aI2
asI159
(lp4558
I2
aI4
asI160
(lp4559
I4
asI163
(lp4560
I4
asI37
(lp4561
I4
aI5
asI38
(lp4562
I5
aI3
asI40
(lp4563
I1
aI2
asI170
(lp4564
I4
asI47
(lp4565
I3
asI176
(lp4566
I5
asI178
(lp4567
I2
asI54
(lp4568
I2
aI3
asI55
(lp4569
I2
asI184
(lp4570
I1
asI189
(lp4571
I2
asI63
(lp4572
I1
aI4
asI66
(lp4573
I1
aI4
asI67
(lp4574
I4
asI196
(lp4575
I5
aI4
asI69
(lp4576
I2
asI198
(lp4577
I2
aI5
asI72
(lp4578
I5
aI2
asI73
(lp4579
I2
aI5
asI74
(lp4580
I5
asI76
(lp4581
I3
aI1
asI83
(lp4582
I1
aI4
asI90
(lp4583
I4
aI5
asI91
(lp4584
I5
aI1
asI92
(lp4585
I1
aI4
asI93
(lp4586
I4
asI95
(lp4587
I4
aI5
asI96
(lp4588
I4
aI5
asI97
(lp4589
I4
aI5
asI98
(lp4590
I5
aI3
asI99
(lp4591
I3
aI4
asI100
(lp4592
I3
asI165
(lp4593
I1
asI104
(lp4594
I2
asI148
(lp4595
I2
asI108
(lp4596
I5
asI110
(lp4597
I1
aI2
asI111
(lp4598
I2
asI114
(lp4599
I4
asI147
(lp4600
I1
aI2
asI116
(lp4601
I1
asI119
(lp4602
I5
asI121
(lp4603
I3
aI1
asa(dp4604
I128
(lp4605
I4
asI130
(lp4606
I4
asI3
(lp4607
I4
aI3
asI132
(lp4608
I4
asI5
(lp4609
I2
asI134
(lp4610
I1
aI4
asI135
(lp4611
I4
asI137
(lp4612
I1
aI4
asI151
(lp4613
I2
asI12
(lp4614
I1
asI142
(lp4615
I1
aI4
asI17
(lp4616
I3
asI20
(lp4617
I5
asI171
(lp4618
I4
asI22
(lp4619
I5
aI1
asI23
(lp4620
I1
aI5
asI24
(lp4621
I5
asI26
(lp4622
I4
asI175
(lp4623
I5
aI4
asI28
(lp4624
I3
aI4
asI29
(lp4625
I4
aI5
asI158
(lp4626
I1
aI3
asI31
(lp4627
I5
aI2
asI32
(lp4628
I2
aI5
asI33
(lp4629
I5
asI200
(lp4630
I5
asI35
(lp4631
I2
aI1
asI166
(lp4632
I3
asI39
(lp4633
I5
aI4
asI40
(lp4634
I4
aI2
asI41
(lp4635
I4
aI2
asI43
(lp4636
I1
asI159
(lp4637
I3
asI173
(lp4638
I4
asI46
(lp4639
I3
aI5
asI47
(lp4640
I5
aI1
asI49
(lp4641
I1
asI178
(lp4642
I5
aI2
asI180
(lp4643
I2
asI53
(lp4644
I1
asI58
(lp4645
I1
aI4
asI59
(lp4646
I4
asI61
(lp4647
I5
asI63
(lp4648
I4
asI65
(lp4649
I3
asI195
(lp4650
I4
asI197
(lp4651
I5
asI70
(lp4652
I4
asI199
(lp4653
I3
aI5
asI72
(lp4654
I2
asI140
(lp4655
I5
asI75
(lp4656
I5
aI4
asI77
(lp4657
I5
aI2
asI78
(lp4658
I2
aI3
asI79
(lp4659
I3
asI82
(lp4660
I3
asI163
(lp4661
I1
asI91
(lp4662
I4
aI2
asI92
(lp4663
I2
aI4
asI95
(lp4664
I4
asI97
(lp4665
I3
aI1
asI109
(lp4666
I4
asI177
(lp4667
I3
aI5
asI111
(lp4668
I5
aI4
asI113
(lp4669
I3
aI5
asI114
(lp4670
I5
asI116
(lp4671
I1
aI2
asI117
(lp4672
I2
asI124
(lp4673
I5
asI126
(lp4674
I4
asa(dp4675
I128
(lp4676
I1
asI2
(lp4677
I1
asI131
(lp4678
I3
asI150
(lp4679
I3
aI2
asI8
(lp4680
I5
asI137
(lp4681
I4
asI10
(lp4682
I2
aI1
asI11
(lp4683
I1
asI141
(lp4684
I3
aI1
asI142
(lp4685
I1
asI179
(lp4686
I1
asI146
(lp4687
I2
asI19
(lp4688
I5
asI21
(lp4689
I4
aI2
asI22
(lp4690
I2
aI1
asI151
(lp4691
I2
aI5
asI154
(lp4692
I2
asI27
(lp4693
I2
aI1
asI157
(lp4694
I5
asI159
(lp4695
I4
aI3
asI164
(lp4696
I2
asI39
(lp4697
I1
asI168
(lp4698
I4
aI2
asI170
(lp4699
I4
asI199
(lp4700
I4
asI174
(lp4701
I2
asI48
(lp4702
I4
aI5
asI51
(lp4703
I1
aI3
asI52
(lp4704
I1
asI182
(lp4705
I5
aI4
asI56
(lp4706
I3
aI2
asI185
(lp4707
I2
asI61
(lp4708
I3
aI1
asI62
(lp4709
I3
asI191
(lp4710
I3
aI2
asI139
(lp4711
I4
aI5
asI197
(lp4712
I5
aI2
asI198
(lp4713
I2
aI4
asI71
(lp4714
I3
asI76
(lp4715
I5
asI78
(lp4716
I3
asI190
(lp4717
I3
aI2
asI184
(lp4718
I2
aI3
asI83
(lp4719
I1
asI90
(lp4720
I4
aI3
asI91
(lp4721
I3
aI2
asI92
(lp4722
I2
aI3
asI101
(lp4723
I2
aI5
asI104
(lp4724
I2
asI167
(lp4725
I4
aI2
asI108
(lp4726
I5
asI110
(lp4727
I3
asI189
(lp4728
I5
aI3
asI114
(lp4729
I1
asI117
(lp4730
I3
aI5
asI118
(lp4731
I5
aI2
asI120
(lp4732
I3
asI125
(lp4733
I1
asa(dp4734
I128
(lp4735
I1
asI192
(lp4736
I4
aI3
asI3
(lp4737
I3
aI5
asI4
(lp4738
I5
aI4
asI133
(lp4739
I4
aI3
asI6
(lp4740
I2
aI4
asI7
(lp4741
I2
asI137
(lp4742
I3
aI1
asI138
(lp4743
I1
aI4
asI11
(lp4744
I5
asI13
(lp4745
I4
asI142
(lp4746
I4
asI15
(lp4747
I2
asI144
(lp4748
I5
asI146
(lp4749
I3
aI4
asI171
(lp4750
I1
aI2
asI23
(lp4751
I2
aI3
asI154
(lp4752
I4
asI28
(lp4753
I3
aI1
asI29
(lp4754
I1
aI5
asI32
(lp4755
I1
asI163
(lp4756
I3
aI4
asI164
(lp4757
I3
aI4
asI37
(lp4758
I1
asI177
(lp4759
I4
asI168
(lp4760
I3
aI4
asI156
(lp4761
I1
asI135
(lp4762
I5
aI3
asI44
(lp4763
I2
aI4
asI45
(lp4764
I4
asI47
(lp4765
I5
asI180
(lp4766
I3
aI2
asI49
(lp4767
I3
asI179
(lp4768
I5
aI3
asI52
(lp4769
I2
asI181
(lp4770
I2
aI5
asI184
(lp4771
I4
asI57
(lp4772
I5
asI186
(lp4773
I2
asI59
(lp4774
I5
asI61
(lp4775
I1
asI134
(lp4776
I3
aI5
asI191
(lp4777
I3
aI4
asI64
(lp4778
I4
asI194
(lp4779
I3
aI4
asI195
(lp4780
I4
aI2
asI197
(lp4781
I3
asI71
(lp4782
I1
aI5
asI72
(lp4783
I5
asI74
(lp4784
I3
asI77
(lp4785
I3
aI1
asI78
(lp4786
I3
aI1
asI82
(lp4787
I4
aI5
asI84
(lp4788
I4
aI2
asI85
(lp4789
I2
aI3
asI86
(lp4790
I3
asI91
(lp4791
I1
aI3
asI92
(lp4792
I3
asI96
(lp4793
I2
aI1
asI97
(lp4794
I1
asI104
(lp4795
I2
aI1
asI115
(lp4796
I2
aI1
asI190
(lp4797
I5
aI3
asI169
(lp4798
I4
aI1
asI120
(lp4799
I1
aI2
asI126
(lp4800
I4
asa(dp4801
I149
(lp4802
I3
aI2
asI129
(lp4803
I1
asI133
(lp4804
I2
asI7
(lp4805
I2
asI136
(lp4806
I5
asI138
(lp4807
I1
aI4
asI139
(lp4808
I4
asI192
(lp4809
I3
asI13
(lp4810
I3
aI2
asI14
(lp4811
I2
aI5
asI144
(lp4812
I4
asI17
(lp4813
I3
aI4
asI18
(lp4814
I4
asI195
(lp4815
I5
asI20
(lp4816
I5
aI2
asI21
(lp4817
I2
aI5
asI22
(lp4818
I2
asI25
(lp4819
I2
asI29
(lp4820
I1
asI158
(lp4821
I5
aI1
asI159
(lp4822
I1
aI2
asI160
(lp4823
I2
asI34
(lp4824
I5
asI163
(lp4825
I2
aI4
asI36
(lp4826
I1
asI166
(lp4827
I2
asI40
(lp4828
I4
asI42
(lp4829
I5
asI171
(lp4830
I1
asI44
(lp4831
I3
asI47
(lp4832
I1
asI176
(lp4833
I1
aI5
asI177
(lp4834
I1
asI50
(lp4835
I3
asI181
(lp4836
I1
asI56
(lp4837
I3
aI2
asI57
(lp4838
I2
aI3
asI187
(lp4839
I2
aI5
asI190
(lp4840
I4
aI2
asI64
(lp4841
I5
asI66
(lp4842
I3
aI1
asI67
(lp4843
I3
aI1
asI197
(lp4844
I1
asI74
(lp4845
I4
asI76
(lp4846
I3
aI4
asI77
(lp4847
I4
asI79
(lp4848
I4
aI3
asI164
(lp4849
I4
asI85
(lp4850
I1
asI89
(lp4851
I5
aI1
asI90
(lp4852
I1
aI2
asI91
(lp4853
I2
asI94
(lp4854
I3
asI102
(lp4855
I1
asI146
(lp4856
I4
aI3
asI113
(lp4857
I3
aI4
asI148
(lp4858
I4
aI3
asI127
(lp4859
I4
asa(dp4860
I128
(lp4861
I2
asI2
(lp4862
I2
aI3
asI3
(lp4863
I3
asI179
(lp4864
I5
aI2
asI7
(lp4865
I2
asI136
(lp4866
I3
aI5
asI137
(lp4867
I5
aI3
asI139
(lp4868
I4
asI141
(lp4869
I5
asI14
(lp4870
I5
asI143
(lp4871
I4
aI3
asI16
(lp4872
I2
asI145
(lp4873
I3
aI1
asI19
(lp4874
I1
aI5
asI20
(lp4875
I5
asI149
(lp4876
I3
asI22
(lp4877
I5
aI3
asI23
(lp4878
I3
aI4
asI24
(lp4879
I4
aI2
asI26
(lp4880
I2
aI1
asI27
(lp4881
I1
asI154
(lp4882
I2
aI5
asI30
(lp4883
I1
aI4
asI31
(lp4884
I4
asI33
(lp4885
I2
asI155
(lp4886
I5
asI36
(lp4887
I4
aI3
asI165
(lp4888
I4
asI38
(lp4889
I3
asI168
(lp4890
I1
aI2
asI43
(lp4891
I5
asI45
(lp4892
I1
asI157
(lp4893
I4
aI2
asI48
(lp4894
I2
aI4
asI177
(lp4895
I5
aI4
asI178
(lp4896
I4
aI5
asI51
(lp4897
I4
asI180
(lp4898
I2
aI1
asI53
(lp4899
I2
asI185
(lp4900
I3
asI61
(lp4901
I4
asI63
(lp4902
I5
asI192
(lp4903
I4
asI65
(lp4904
I3
asI194
(lp4905
I1
aI2
asI152
(lp4906
I5
asI69
(lp4907
I1
asI181
(lp4908
I1
asI158
(lp4909
I2
aI4
asI72
(lp4910
I4
aI5
asI73
(lp4911
I4
aI5
asI76
(lp4912
I2
aI1
asI77
(lp4913
I1
asI80
(lp4914
I4
aI5
asI81
(lp4915
I5
aI1
asI82
(lp4916
I1
aI4
asI83
(lp4917
I4
asI87
(lp4918
I3
aI5
asI90
(lp4919
I3
aI4
asI91
(lp4920
I4
aI2
asI93
(lp4921
I3
asI198
(lp4922
I5
asI144
(lp4923
I3
aI1
asI98
(lp4924
I5
aI4
asI99
(lp4925
I4
aI5
asI100
(lp4926
I5
aI4
asI101
(lp4927
I4
aI2
asI102
(lp4928
I2
aI3
asI103
(lp4929
I3
asI112
(lp4930
I1
aI4
asI113
(lp4931
I1
asI131
(lp4932
I2
asI120
(lp4933
I1
aI5
asI121
(lp4934
I5
asI123
(lp4935
I2
asI200
(lp4936
I3
asI126
(lp4937
I5
aI2
asI127
(lp4938
I2
aI4
asa(dp4939
I2
(lp4940
I4
asI131
(lp4941
I3
asI4
(lp4942
I4
aI2
asI5
(lp4943
I2
aI5
asI6
(lp4944
I5
asI135
(lp4945
I5
aI4
asI8
(lp4946
I1
asI137
(lp4947
I2
aI3
asI138
(lp4948
I3
asI151
(lp4949
I2
aI4
asI13
(lp4950
I4
asI142
(lp4951
I1
asI18
(lp4952
I3
aI4
asI21
(lp4953
I5
asI23
(lp4954
I5
asI152
(lp4955
I4
asI25
(lp4956
I3
asI154
(lp4957
I5
asI156
(lp4958
I3
aI5
asI157
(lp4959
I5
asI159
(lp4960
I1
asI34
(lp4961
I2
asI164
(lp4962
I5
aI1
asI198
(lp4963
I4
aI1
asI146
(lp4964
I2
asI39
(lp4965
I3
asI45
(lp4966
I5
aI3
asI46
(lp4967
I5
aI3
asI47
(lp4968
I3
aI1
asI48
(lp4969
I1
asI200
(lp4970
I1
asI178
(lp4971
I1
asI52
(lp4972
I3
aI1
asI53
(lp4973
I1
aI2
asI182
(lp4974
I1
aI2
asI183
(lp4975
I2
asI57
(lp4976
I2
asI187
(lp4977
I1
asI61
(lp4978
I2
aI3
asI62
(lp4979
I2
asI191
(lp4980
I4
aI5
asI192
(lp4981
I5
aI2
asI194
(lp4982
I4
asI67
(lp4983
I2
asI196
(lp4984
I4
aI1
asI130
(lp4985
I1
aI3
asI72
(lp4986
I4
aI2
asI73
(lp4987
I2
aI4
asI77
(lp4988
I5
aI1
asI79
(lp4989
I3
asI82
(lp4990
I5
aI2
asI84
(lp4991
I5
asI86
(lp4992
I3
asI89
(lp4993
I3
aI4
asI90
(lp4994
I4
asI92
(lp4995
I4
aI5
asI94
(lp4996
I3
aI2
asI95
(lp4997
I2
asI98
(lp4998
I1
asI166
(lp4999
I1
asI105
(lp5000
I4
asI107
(lp5001
I5
asI109
(lp5002
I2
aI1
asI110
(lp5003
I1
asI114
(lp5004
I4
aI2
asI115
(lp5005
I2
aI5
asI116
(lp5006
I5
asI118
(lp5007
I4
asI120
(lp5008
I2
aI4
asI123
(lp5009
I5
aI2
asI124
(lp5010
I2
aI1
asI125
(lp5011
I2
asa(dp5012
I129
(lp5013
I3
asI4
(lp5014
I1
asI134
(lp5015
I1
aI5
asI7
(lp5016
I4
asI9
(lp5017
I4
asI139
(lp5018
I5
asI141
(lp5019
I3
aI5
asI14
(lp5020
I2
aI3
asI15
(lp5021
I3
asI145
(lp5022
I3
asI23
(lp5023
I4
asI25
(lp5024
I1
aI4
asI26
(lp5025
I4
asI28
(lp5026
I1
asI157
(lp5027
I3
asI31
(lp5028
I3
aI5
asI32
(lp5029
I5
asI34
(lp5030
I5
aI3
asI36
(lp5031
I3
asI39
(lp5032
I3
aI5
asI42
(lp5033
I4
aI2
asI43
(lp5034
I2
aI5
asI44
(lp5035
I5
asI173
(lp5036
I3
asI46
(lp5037
I1
aI3
asI177
(lp5038
I1
aI2
asI178
(lp5039
I1
asI137
(lp5040
I4
asI185
(lp5041
I2
asI58
(lp5042
I1
aI3
asI59
(lp5043
I3
asI188
(lp5044
I4
aI2
asI189
(lp5045
I2
aI3
asI190
(lp5046
I2
asI65
(lp5047
I4
aI2
asI66
(lp5048
I2
aI4
asI69
(lp5049
I3
asI198
(lp5050
I5
asI194
(lp5051
I3
aI1
asI74
(lp5052
I1
asI183
(lp5053
I5
asI78
(lp5054
I1
aI3
asI82
(lp5055
I3
asI142
(lp5056
I3
aI5
asI86
(lp5057
I2
aI4
asI87
(lp5058
I4
asI200
(lp5059
I3
asI96
(lp5060
I3
asI99
(lp5061
I3
aI1
asI100
(lp5062
I1
asI104
(lp5063
I4
aI3
asI106
(lp5064
I3
asI109
(lp5065
I3
asI112
(lp5066
I3
asI116
(lp5067
I4
asI118
(lp5068
I4
aI3
asI120
(lp5069
I3
aI5
asI121
(lp5070
I5
asI123
(lp5071
I4
aI1
asI124
(lp5072
I4
aI1
asI125
(lp5073
I1
aI5
asa(dp5074
I192
(lp5075
I5
aI4
asI130
(lp5076
I5
aI2
asI131
(lp5077
I2
aI5
asI132
(lp5078
I5
asI134
(lp5079
I5
aI4
asI135
(lp5080
I4
aI5
asI8
(lp5081
I5
asI137
(lp5082
I3
aI4
asI10
(lp5083
I5
asI12
(lp5084
I5
aI1
asI141
(lp5085
I3
aI5
asI14
(lp5086
I2
asI173
(lp5087
I4
asI145
(lp5088
I4
asI18
(lp5089
I2
aI1
asI147
(lp5090
I4
aI2
asI149
(lp5091
I1
asI152
(lp5092
I2
asI26
(lp5093
I5
asI155
(lp5094
I5
asI28
(lp5095
I4
aI5
asI29
(lp5096
I4
aI5
asI30
(lp5097
I5
aI1
asI31
(lp5098
I1
aI3
asI32
(lp5099
I3
asI163
(lp5100
I4
aI5
asI36
(lp5101
I1
aI3
asI198
(lp5102
I3
asI166
(lp5103
I1
asI40
(lp5104
I1
aI5
asI169
(lp5105
I3
asI193
(lp5106
I4
aI5
asI43
(lp5107
I5
asI45
(lp5108
I4
aI5
asI46
(lp5109
I5
aI3
asI47
(lp5110
I3
aI2
asI48
(lp5111
I2
aI3
asI136
(lp5112
I5
aI3
asI179
(lp5113
I4
asI52
(lp5114
I2
aI5
asI53
(lp5115
I5
asI55
(lp5116
I3
asI184
(lp5117
I1
aI4
asI185
(lp5118
I1
asI60
(lp5119
I5
asI138
(lp5120
I4
asI62
(lp5121
I4
aI1
asI63
(lp5122
I1
aI3
asI64
(lp5123
I3
asI160
(lp5124
I1
asI175
(lp5125
I3
asI67
(lp5126
I2
asI196
(lp5127
I4
aI1
asI181
(lp5128
I3
asI71
(lp5129
I5
aI4
asI72
(lp5130
I4
aI3
asI73
(lp5131
I3
aI1
asI74
(lp5132
I1
aI3
asI78
(lp5133
I1
aI5
asI79
(lp5134
I1
asI83
(lp5135
I2
asI87
(lp5136
I2
asI90
(lp5137
I1
asI94
(lp5138
I3
asI98
(lp5139
I4
aI3
asI99
(lp5140
I3
aI2
asI103
(lp5141
I4
asI194
(lp5142
I5
aI3
asI189
(lp5143
I4
asI157
(lp5144
I3
aI4
asI140
(lp5145
I3
aI5
asI115
(lp5146
I4
aI1
asI117
(lp5147
I1
aI5
asI118
(lp5148
I5
asI120
(lp5149
I3
asI191
(lp5150
I5
aI4
asI124
(lp5151
I1
aI5
asI125
(lp5152
I5
asI127
(lp5153
I2
asa(dp5154
I132
(lp5155
I5
aI1
asI133
(lp5156
I5
aI1
asI6
(lp5157
I4
asI135
(lp5158
I1
asI8
(lp5159
I3
asI11
(lp5160
I1
asI140
(lp5161
I3
aI2
asI141
(lp5162
I2
asI15
(lp5163
I5
asI17
(lp5164
I4
asI146
(lp5165
I5
asI19
(lp5166
I2
aI1
asI20
(lp5167
I2
asI150
(lp5168
I4
aI2
asI151
(lp5169
I4
aI2
asI152
(lp5170
I2
aI4
asI27
(lp5171
I5
asI29
(lp5172
I3
asI159
(lp5173
I5
aI4
asI32
(lp5174
I5
aI1
asI33
(lp5175
I5
aI1
asI34
(lp5176
I1
aI5
asI35
(lp5177
I5
asI37
(lp5178
I3
asI168
(lp5179
I3
aI4
asI169
(lp5180
I3
asI44
(lp5181
I1
aI4
asI45
(lp5182
I4
asI47
(lp5183
I3
asI51
(lp5184
I5
aI1
asI180
(lp5185
I2
asI53
(lp5186
I2
asI56
(lp5187
I1
asI185
(lp5188
I2
asI59
(lp5189
I1
aI4
asI60
(lp5190
I1
asI134
(lp5191
I1
aI3
asI63
(lp5192
I5
aI1
asI65
(lp5193
I1
asI194
(lp5194
I2
aI5
asI195
(lp5195
I5
asI197
(lp5196
I3
asI161
(lp5197
I1
aI2
asI200
(lp5198
I2
aI1
asI162
(lp5199
I2
asI79
(lp5200
I5
aI3
asI81
(lp5201
I1
asI85
(lp5202
I1
aI4
asI86
(lp5203
I1
asI89
(lp5204
I1
asI93
(lp5205
I5
aI4
asI95
(lp5206
I3
aI2
asI96
(lp5207
I2
asI101
(lp5208
I3
asI188
(lp5209
I3
asI106
(lp5210
I3
aI4
asI109
(lp5211
I4
aI3
asI110
(lp5212
I3
aI1
asI173
(lp5213
I2
aI1
asI116
(lp5214
I2
aI3
asI117
(lp5215
I3
asI148
(lp5216
I5
asI124
(lp5217
I3
aI4
asI125
(lp5218
I4
asa(dp5219
I130
(lp5220
I2
asI171
(lp5221
I1
aI5
asI5
(lp5222
I2
asI135
(lp5223
I4
asI9
(lp5224
I5
asI11
(lp5225
I2
asI175
(lp5226
I1
asI14
(lp5227
I5
asI16
(lp5228
I4
asI18
(lp5229
I1
asI149
(lp5230
I3
aI2
asI150
(lp5231
I2
asI154
(lp5232
I3
aI2
asI27
(lp5233
I1
asI167
(lp5234
I2
asI133
(lp5235
I5
asI33
(lp5236
I2
asI197
(lp5237
I5
aI1
asI180
(lp5238
I5
aI2
asI36
(lp5239
I5
asI38
(lp5240
I3
aI4
asI39
(lp5241
I4
aI1
asI41
(lp5242
I5
asI43
(lp5243
I3
aI1
asI172
(lp5244
I5
asI174
(lp5245
I2
aI1
asI47
(lp5246
I2
aI5
asI50
(lp5247
I4
aI1
asI51
(lp5248
I1
aI5
asI52
(lp5249
I5
asI54
(lp5250
I4
asI137
(lp5251
I1
asI56
(lp5252
I3
aI2
asI57
(lp5253
I3
asI189
(lp5254
I3
aI1
asI190
(lp5255
I1
aI5
asI63
(lp5256
I4
aI3
asI65
(lp5257
I3
aI1
asI66
(lp5258
I3
asI182
(lp5259
I3
asI198
(lp5260
I1
aI3
asI161
(lp5261
I1
asI194
(lp5262
I3
asI73
(lp5263
I3
asI78
(lp5264
I2
asI81
(lp5265
I5
asI83
(lp5266
I2
asI89
(lp5267
I1
aI2
asI90
(lp5268
I2
asI93
(lp5269
I5
asI199
(lp5270
I3
asI95
(lp5271
I2
asI144
(lp5272
I3
asI99
(lp5273
I2
aI4
asI166
(lp5274
I1
aI2
asI102
(lp5275
I2
aI1
asI103
(lp5276
I2
asI107
(lp5277
I3
aI5
asI108
(lp5278
I5
aI2
asI110
(lp5279
I4
asI179
(lp5280
I4
aI5
asI113
(lp5281
I3
aI1
asI120
(lp5282
I4
asI122
(lp5283
I4
asI124
(lp5284
I5
aI2
asI126
(lp5285
I2
asa(dp5286
I5
(lp5287
I5
aI1
asI6
(lp5288
I5
aI1
asI7
(lp5289
I1
aI2
asI8
(lp5290
I2
asI11
(lp5291
I1
aI4
asI140
(lp5292
I4
asI142
(lp5293
I5
aI3
asI15
(lp5294
I2
asI144
(lp5295
I4
aI3
asI146
(lp5296
I2
asI19
(lp5297
I2
asI150
(lp5298
I3
asI154
(lp5299
I4
aI2
asI156
(lp5300
I1
asI31
(lp5301
I3
asI160
(lp5302
I1
asI35
(lp5303
I2
asI38
(lp5304
I2
aI4
asI39
(lp5305
I4
asI168
(lp5306
I4
asI41
(lp5307
I1
aI2
asI173
(lp5308
I3
asI176
(lp5309
I5
asI136
(lp5310
I2
aI5
asI178
(lp5311
I4
asI51
(lp5312
I4
aI5
asI52
(lp5313
I5
aI3
asI53
(lp5314
I5
aI3
asI54
(lp5315
I5
aI3
asI55
(lp5316
I3
aI1
asI56
(lp5317
I1
asI180
(lp5318
I1
asI187
(lp5319
I5
asI61
(lp5320
I1
aI2
asI62
(lp5321
I1
asI192
(lp5322
I4
aI5
asI193
(lp5323
I5
aI2
asI194
(lp5324
I2
aI3
asI139
(lp5325
I2
aI4
asI68
(lp5326
I4
aI5
asI71
(lp5327
I3
asI74
(lp5328
I5
aI4
asI183
(lp5329
I4
asI76
(lp5330
I3
aI2
asI77
(lp5331
I2
asI84
(lp5332
I1
aI2
asI85
(lp5333
I2
asI185
(lp5334
I5
asI143
(lp5335
I3
aI4
asI95
(lp5336
I4
asI97
(lp5337
I5
asI99
(lp5338
I3
asI102
(lp5339
I4
aI5
asI103
(lp5340
I4
aI5
asI104
(lp5341
I5
aI1
asI105
(lp5342
I1
aI5
asI106
(lp5343
I5
asI108
(lp5344
I1
aI4
asI109
(lp5345
I4
asI189
(lp5346
I3
asI112
(lp5347
I5
aI2
asI113
(lp5348
I2
aI4
asI114
(lp5349
I4
asI116
(lp5350
I2
asI119
(lp5351
I2
asI122
(lp5352
I3
aI4
asI125
(lp5353
I3
aI1
asI126
(lp5354
I3
asI195
(lp5355
I3
asa(dp5356
I131
(lp5357
I1
asI4
(lp5358
I5
aI2
asI150
(lp5359
I1
asI6
(lp5360
I2
asI138
(lp5361
I4
asI140
(lp5362
I3
aI2
asI141
(lp5363
I2
asI15
(lp5364
I4
aI2
asI16
(lp5365
I2
aI5
asI17
(lp5366
I2
asI147
(lp5367
I1
aI5
asI20
(lp5368
I5
asI196
(lp5369
I1
aI2
asI22
(lp5370
I3
asI153
(lp5371
I3
aI1
asI26
(lp5372
I5
aI2
asI27
(lp5373
I2
aI5
asI28
(lp5374
I2
asI154
(lp5375
I3
asI31
(lp5376
I4
aI1
asI33
(lp5377
I1
asI197
(lp5378
I2
asI39
(lp5379
I2
aI1
asI40
(lp5380
I1
asI45
(lp5381
I5
asI47
(lp5382
I3
asI51
(lp5383
I2
asI186
(lp5384
I1
asI55
(lp5385
I2
asI58
(lp5386
I1
asI61
(lp5387
I3
aI1
asI62
(lp5388
I1
asI192
(lp5389
I4
aI3
asI193
(lp5390
I3
aI5
asI66
(lp5391
I4
aI2
asI67
(lp5392
I4
aI2
asI68
(lp5393
I2
aI3
asI69
(lp5394
I2
asI200
(lp5395
I3
aI4
asI73
(lp5396
I3
asI77
(lp5397
I2
aI5
asI78
(lp5398
I5
asI80
(lp5399
I3
aI2
asI81
(lp5400
I2
asI84
(lp5401
I3
aI5
asI87
(lp5402
I4
aI3
asI88
(lp5403
I3
aI1
asI89
(lp5404
I1
aI5
asI93
(lp5405
I4
asI95
(lp5406
I2
asI144
(lp5407
I2
aI5
asI98
(lp5408
I1
asI101
(lp5409
I2
asI145
(lp5410
I5
asI104
(lp5411
I4
asI106
(lp5412
I4
asI108
(lp5413
I1
aI2
asI109
(lp5414
I2
asI112
(lp5415
I3
asI117
(lp5416
I3
aI4
asI118
(lp5417
I4
aI1
asI122
(lp5418
I4
aI5
asI124
(lp5419
I2
aI4
asI125
(lp5420
I4
asI127
(lp5421
I2
asa(dp5422
I128
(lp5423
I5
aI3
asI129
(lp5424
I5
aI3
asI2
(lp5425
I1
aI5
asI3
(lp5426
I5
asI132
(lp5427
I5
asI5
(lp5428
I3
asI134
(lp5429
I2
asI193
(lp5430
I5
aI1
asI137
(lp5431
I3
asI10
(lp5432
I1
asI140
(lp5433
I1
asI130
(lp5434
I5
aI3
asI143
(lp5435
I5
asI145
(lp5436
I3
aI5
asI131
(lp5437
I3
aI5
asI148
(lp5438
I4
asI174
(lp5439
I5
asI150
(lp5440
I4
asI23
(lp5441
I2
asI152
(lp5442
I5
asI196
(lp5443
I1
asI154
(lp5444
I5
asI27
(lp5445
I1
aI2
asI156
(lp5446
I1
aI2
asI157
(lp5447
I2
asI31
(lp5448
I2
aI1
asI32
(lp5449
I2
asI176
(lp5450
I5
aI3
asI38
(lp5451
I2
aI1
asI39
(lp5452
I1
asI42
(lp5453
I5
aI2
asI171
(lp5454
I4
asI44
(lp5455
I5
asI173
(lp5456
I2
aI5
asI46
(lp5457
I4
aI3
asI47
(lp5458
I4
aI3
asI48
(lp5459
I4
aI3
asI49
(lp5460
I3
aI5
asI50
(lp5461
I5
asI179
(lp5462
I1
asI52
(lp5463
I3
asI182
(lp5464
I1
asI57
(lp5465
I3
asI63
(lp5466
I3
aI2
asI160
(lp5467
I1
asI67
(lp5468
I4
aI1
asI68
(lp5469
I1
aI2
asI199
(lp5470
I3
asI72
(lp5471
I3
asI177
(lp5472
I5
aI3
asI77
(lp5473
I2
aI1
asI78
(lp5474
I1
asI82
(lp5475
I4
asI84
(lp5476
I1
aI4
asI85
(lp5477
I4
asI87
(lp5478
I4
aI2
asI88
(lp5479
I4
aI2
asI93
(lp5480
I5
asI95
(lp5481
I2
aI3
asI96
(lp5482
I3
asI101
(lp5483
I2
asI195
(lp5484
I1
aI5
asI178
(lp5485
I3
aI1
asI104
(lp5486
I3
asI167
(lp5487
I1
asI108
(lp5488
I4
aI2
asI109
(lp5489
I2
aI5
asI110
(lp5490
I2
asI113
(lp5491
I3
aI2
asI114
(lp5492
I2
asI118
(lp5493
I1
asI123
(lp5494
I1
asI126
(lp5495
I5
aI3
asI127
(lp5496
I5
aI3
asa(dp5497
I128
(lp5498
I3
aI2
asI129
(lp5499
I2
asI171
(lp5500
I4
asI132
(lp5501
I5
asI5
(lp5502
I1
asI134
(lp5503
I2
asI9
(lp5504
I4
asI12
(lp5505
I3
asI16
(lp5506
I4
asI145
(lp5507
I2
aI5
asI18
(lp5508
I3
asI144
(lp5509
I5
aI2
asI149
(lp5510
I4
aI1
asI22
(lp5511
I3
asI151
(lp5512
I1
asI25
(lp5513
I2
aI5
asI29
(lp5514
I4
aI3
asI30
(lp5515
I3
aI5
asI160
(lp5516
I5
aI1
asI33
(lp5517
I2
asI162
(lp5518
I2
asI36
(lp5519
I4
aI3
asI167
(lp5520
I4
asI169
(lp5521
I5
asI43
(lp5522
I2
asI174
(lp5523
I3
asI157
(lp5524
I3
aI5
asI177
(lp5525
I5
aI3
asI178
(lp5526
I3
aI5
asI179
(lp5527
I5
aI3
asI52
(lp5528
I4
asI158
(lp5529
I5
aI1
asI54
(lp5530
I1
asI137
(lp5531
I1
aI3
asI184
(lp5532
I1
aI4
asI57
(lp5533
I2
aI3
asI187
(lp5534
I4
asI189
(lp5535
I5
aI3
asI62
(lp5536
I3
asI181
(lp5537
I3
aI4
asI193
(lp5538
I4
asI66
(lp5539
I1
asI182
(lp5540
I4
aI1
asI161
(lp5541
I1
aI2
asI74
(lp5542
I5
aI1
asI76
(lp5543
I4
asI85
(lp5544
I1
asI185
(lp5545
I4
asI88
(lp5546
I4
aI3
asI89
(lp5547
I3
aI4
asI92
(lp5548
I2
asI97
(lp5549
I2
aI4
asI101
(lp5550
I5
aI4
asI103
(lp5551
I3
aI5
asI104
(lp5552
I5
aI2
asI106
(lp5553
I2
aI1
asI107
(lp5554
I2
asI146
(lp5555
I2
asI111
(lp5556
I3
aI5
asI112
(lp5557
I5
aI2
asI114
(lp5558
I2
asI191
(lp5559
I4
asI118
(lp5560
I5
asI120
(lp5561
I5
asI122
(lp5562
I3
aI5
asI123
(lp5563
I5
aI4
asI125
(lp5564
I5
aI4
asI126
(lp5565
I5
aI4
asI127
(lp5566
I4
aI3
asa(dp5567
I128
(lp5568
I2
asI131
(lp5569
I2
aI3
asI179
(lp5570
I5
asI6
(lp5571
I3
aI4
asI9
(lp5572
I3
asI12
(lp5573
I4
aI1
asI13
(lp5574
I1
aI5
asI142
(lp5575
I5
aI4
asI143
(lp5576
I4
aI5
asI16
(lp5577
I5
asI145
(lp5578
I3
aI4
asI18
(lp5579
I3
asI148
(lp5580
I1
aI5
asI21
(lp5581
I1
aI2
asI186
(lp5582
I1
aI4
asI151
(lp5583
I1
aI4
asI152
(lp5584
I4
asI154
(lp5585
I5
aI3
asI175
(lp5586
I2
aI5
asI156
(lp5587
I1
aI3
asI29
(lp5588
I3
aI1
asI33
(lp5589
I4
aI3
asI34
(lp5590
I3
aI4
asI35
(lp5591
I4
asI37
(lp5592
I1
aI3
asI166
(lp5593
I5
asI168
(lp5594
I2
asI172
(lp5595
I4
asI174
(lp5596
I3
aI2
asI47
(lp5597
I3
aI1
asI48
(lp5598
I1
asI178
(lp5599
I2
aI5
asI51
(lp5600
I1
aI5
asI52
(lp5601
I5
asI181
(lp5602
I4
asI54
(lp5603
I5
asI183
(lp5604
I3
asI56
(lp5605
I5
aI4
asI58
(lp5606
I1
aI3
asI187
(lp5607
I4
asI189
(lp5608
I3
aI1
asI62
(lp5609
I4
asI193
(lp5610
I4
asI197
(lp5611
I3
asI70
(lp5612
I5
aI4
asI72
(lp5613
I2
aI1
asI73
(lp5614
I1
asI76
(lp5615
I5
aI2
asI77
(lp5616
I2
aI3
asI78
(lp5617
I3
asI81
(lp5618
I2
asI87
(lp5619
I1
aI2
asI88
(lp5620
I2
asI92
(lp5621
I3
aI5
asI93
(lp5622
I5
asI95
(lp5623
I1
asI144
(lp5624
I5
aI3
asI98
(lp5625
I5
asI100
(lp5626
I3
aI2
asI101
(lp5627
I2
asI106
(lp5628
I1
aI2
asI107
(lp5629
I2
asI146
(lp5630
I4
asI110
(lp5631
I1
asI113
(lp5632
I2
aI5
asI140
(lp5633
I5
asI116
(lp5634
I5
asI190
(lp5635
I1
aI5
asI118
(lp5636
I5
aI2
asI119
(lp5637
I2
aI4
asI120
(lp5638
I4
asI123
(lp5639
I3
aI4
asI127
(lp5640
I3
aI2
asa(dp5641
I128
(lp5642
I5
asI130
(lp5643
I5
aI1
asI3
(lp5644
I3
aI4
asI4
(lp5645
I4
aI3
asI6
(lp5646
I5
aI2
asI8
(lp5647
I4
asI10
(lp5648
I3
aI1
asI139
(lp5649
I4
asI141
(lp5650
I4
aI3
asI142
(lp5651
I4
aI3
asI143
(lp5652
I3
aI1
asI144
(lp5653
I1
asI19
(lp5654
I4
aI2
asI20
(lp5655
I2
aI3
asI196
(lp5656
I2
aI4
asI24
(lp5657
I1
asI132
(lp5658
I3
asI29
(lp5659
I2
aI5
asI30
(lp5660
I5
asI32
(lp5661
I2
asI161
(lp5662
I5
asI35
(lp5663
I2
asI39
(lp5664
I3
asI168
(lp5665
I2
asI45
(lp5666
I4
aI1
asI46
(lp5667
I1
aI3
asI47
(lp5668
I3
asI177
(lp5669
I3
aI2
asI178
(lp5670
I2
aI3
asI51
(lp5671
I5
asI53
(lp5672
I5
aI2
asI54
(lp5673
I2
aI5
asI55
(lp5674
I5
asI57
(lp5675
I1
aI5
asI58
(lp5676
I5
asI187
(lp5677
I1
aI2
asI60
(lp5678
I5
asI138
(lp5679
I2
aI4
asI62
(lp5680
I2
asI192
(lp5681
I1
asI160
(lp5682
I3
aI5
asI67
(lp5683
I1
aI4
asI68
(lp5684
I4
asI197
(lp5685
I4
asI70
(lp5686
I3
aI4
asI158
(lp5687
I4
aI3
asI200
(lp5688
I3
asI74
(lp5689
I4
aI2
asI75
(lp5690
I2
aI4
asI78
(lp5691
I3
asI173
(lp5692
I3
asI163
(lp5693
I2
asI84
(lp5694
I4
asI89
(lp5695
I3
asI93
(lp5696
I1
asI131
(lp5697
I1
aI3
asI103
(lp5698
I4
aI3
asI104
(lp5699
I4
aI3
asI105
(lp5700
I3
aI1
asI106
(lp5701
I1
asI111
(lp5702
I4
asI113
(lp5703
I1
aI5
asI114
(lp5704
I5
asI116
(lp5705
I2
aI1
asI117
(lp5706
I1
asI120
(lp5707
I1
aI2
asI121
(lp5708
I2
asI183
(lp5709
I1
asI126
(lp5710
I4
asa(dp5711
I129
(lp5712
I1
aI2
asI130
(lp5713
I2
asI179
(lp5714
I3
asI5
(lp5715
I1
aI5
asI6
(lp5716
I5
asI8
(lp5717
I5
asI172
(lp5718
I3
aI2
asI10
(lp5719
I3
asI139
(lp5720
I5
asI13
(lp5721
I1
asI158
(lp5722
I3
asI16
(lp5723
I2
asI195
(lp5724
I4
asI23
(lp5725
I3
asI152
(lp5726
I1
asI26
(lp5727
I2
aI5
asI27
(lp5728
I5
asI29
(lp5729
I2
aI3
asI30
(lp5730
I3
asI35
(lp5731
I3
aI4
asI38
(lp5732
I4
asI40
(lp5733
I4
aI5
asI41
(lp5734
I5
aI3
asI42
(lp5735
I5
aI3
asI43
(lp5736
I3
aI1
asI44
(lp5737
I1
asI173
(lp5738
I2
aI5
asI157
(lp5739
I1
aI3
asI177
(lp5740
I4
asI50
(lp5741
I5
aI3
asI51
(lp5742
I5
aI3
asI52
(lp5743
I3
aI5
asI53
(lp5744
I5
aI4
asI55
(lp5745
I5
aI1
asI184
(lp5746
I4
aI3
asI57
(lp5747
I5
asI186
(lp5748
I2
aI5
asI59
(lp5749
I2
asI151
(lp5750
I1
aI2
asI189
(lp5751
I1
asI62
(lp5752
I4
aI2
asI64
(lp5753
I2
asI193
(lp5754
I5
aI3
asI194
(lp5755
I3
aI4
asI67
(lp5756
I3
aI4
asI68
(lp5757
I3
aI4
asI197
(lp5758
I5
aI4
asI198
(lp5759
I5
aI4
asI71
(lp5760
I4
aI1
asI72
(lp5761
I4
aI1
asI73
(lp5762
I1
aI5
asI74
(lp5763
I5
asI76
(lp5764
I5
asI78
(lp5765
I4
asI141
(lp5766
I3
asI80
(lp5767
I2
asI163
(lp5768
I2
asI89
(lp5769
I1
asI92
(lp5770
I2
asI199
(lp5771
I5
aI4
asI96
(lp5772
I5
asI144
(lp5773
I4
asI98
(lp5774
I3
asI103
(lp5775
I1
asI110
(lp5776
I2
aI5
asI111
(lp5777
I2
asI168
(lp5778
I1
asI114
(lp5779
I1
asI118
(lp5780
I3
aI2
asI119
(lp5781
I2
aI1
asI200
(lp5782
I4
aI5
asI125
(lp5783
I1
aI2
asI126
(lp5784
I2
asa(dp5785
I129
(lp5786
I1
aI2
asI130
(lp5787
I2
asI5
(lp5788
I2
asI193
(lp5789
I4
asI9
(lp5790
I3
aI5
asI10
(lp5791
I5
aI1
asI139
(lp5792
I4
aI3
asI12
(lp5793
I4
asI141
(lp5794
I4
asI14
(lp5795
I1
asI143
(lp5796
I3
aI5
asI144
(lp5797
I5
aI1
asI146
(lp5798
I2
asI23
(lp5799
I4
asI26
(lp5800
I2
aI1
asI27
(lp5801
I2
asI157
(lp5802
I4
asI159
(lp5803
I2
aI3
asI160
(lp5804
I3
asI35
(lp5805
I5
asI37
(lp5806
I4
aI5
asI38
(lp5807
I4
aI5
asI39
(lp5808
I5
aI3
asI41
(lp5809
I5
asI170
(lp5810
I5
asI43
(lp5811
I1
aI3
asI44
(lp5812
I3
asI174
(lp5813
I3
asI48
(lp5814
I5
asI177
(lp5815
I2
asI50
(lp5816
I3
asI172
(lp5817
I5
aI3
asI180
(lp5818
I2
asI55
(lp5819
I1
aI2
asI56
(lp5820
I2
asI186
(lp5821
I5
aI4
asI187
(lp5822
I4
aI5
asI188
(lp5823
I5
aI1
asI190
(lp5824
I2
asI65
(lp5825
I2
asI195
(lp5826
I1
aI2
asI68
(lp5827
I3
asI140
(lp5828
I3
aI4
asI78
(lp5829
I2
asI85
(lp5830
I2
asI88
(lp5831
I5
asI90
(lp5832
I2
aI1
asI167
(lp5833
I3
asI95
(lp5834
I1
asI102
(lp5835
I4
asI104
(lp5836
I5
asI106
(lp5837
I3
aI4
asI107
(lp5838
I3
aI4
asI110
(lp5839
I2
asI121
(lp5840
I1
asI126
(lp5841
I1
aI4
asI127
(lp5842
I4
asa(dp5843
I128
(lp5844
I5
aI2
asI129
(lp5845
I2
aI5
asI2
(lp5846
I4
aI1
asI3
(lp5847
I1
aI5
asI4
(lp5848
I5
asI6
(lp5849
I1
asI136
(lp5850
I4
asI138
(lp5851
I5
asI11
(lp5852
I1
asI140
(lp5853
I1
asI130
(lp5854
I5
asI15
(lp5855
I5
asI17
(lp5856
I5
asI19
(lp5857
I5
asI148
(lp5858
I3
aI1
asI21
(lp5859
I5
aI4
asI22
(lp5860
I4
aI5
asI23
(lp5861
I5
aI4
asI25
(lp5862
I1
aI3
asI26
(lp5863
I3
asI156
(lp5864
I2
asI149
(lp5865
I1
aI5
asI160
(lp5866
I3
asI37
(lp5867
I1
asI166
(lp5868
I4
asI169
(lp5869
I2
aI4
asI170
(lp5870
I2
asI43
(lp5871
I2
aI1
asI44
(lp5872
I1
asI173
(lp5873
I4
asI175
(lp5874
I3
aI2
asI176
(lp5875
I3
asI189
(lp5876
I5
asI53
(lp5877
I3
aI2
asI182
(lp5878
I2
asI132
(lp5879
I1
asI185
(lp5880
I2
aI5
asI186
(lp5881
I2
asI59
(lp5882
I5
aI1
asI60
(lp5883
I5
aI1
asI61
(lp5884
I1
aI2
asI62
(lp5885
I2
asI181
(lp5886
I2
aI5
asI67
(lp5887
I1
aI2
asI68
(lp5888
I1
asI198
(lp5889
I1
asI75
(lp5890
I4
aI3
asI77
(lp5891
I3
asI82
(lp5892
I4
aI1
asI83
(lp5893
I4
aI1
asI84
(lp5894
I1
aI5
asI85
(lp5895
I5
asI87
(lp5896
I2
aI4
asI88
(lp5897
I4
asI92
(lp5898
I5
asI159
(lp5899
I2
aI3
asI94
(lp5900
I1
aI4
asI95
(lp5901
I4
asI97
(lp5902
I2
asI165
(lp5903
I2
aI4
asI145
(lp5904
I2
asI106
(lp5905
I2
aI5
asI107
(lp5906
I5
asI109
(lp5907
I5
asI111
(lp5908
I2
asI114
(lp5909
I3
asI117
(lp5910
I5
asI119
(lp5911
I2
asI153
(lp5912
I3
asI191
(lp5913
I2
asI127
(lp5914
I4
aI5
asa(dp5915
I129
(lp5916
I5
aI2
asI130
(lp5917
I2
aI5
asI131
(lp5918
I2
asI4
(lp5919
I4
asI6
(lp5920
I5
asI8
(lp5921
I1
asI140
(lp5922
I5
asI13
(lp5923
I5
aI1
asI142
(lp5924
I1
aI2
asI15
(lp5925
I3
asI19
(lp5926
I5
aI1
asI20
(lp5927
I1
aI5
asI21
(lp5928
I5
asI150
(lp5929
I3
asI23
(lp5930
I2
asI28
(lp5931
I3
asI31
(lp5932
I3
aI2
asI32
(lp5933
I3
aI2
asI161
(lp5934
I4
aI5
asI163
(lp5935
I5
aI4
asI36
(lp5936
I5
asI134
(lp5937
I5
asI38
(lp5938
I2
aI5
asI39
(lp5939
I5
asI41
(lp5940
I3
aI5
asI42
(lp5941
I5
aI2
asI171
(lp5942
I1
asI44
(lp5943
I3
asI178
(lp5944
I3
asI49
(lp5945
I2
aI5
asI50
(lp5946
I2
asI53
(lp5947
I2
asI182
(lp5948
I2
aI4
asI183
(lp5949
I2
asI61
(lp5950
I5
asI190
(lp5951
I2
asI63
(lp5952
I1
asI198
(lp5953
I5
aI3
asI67
(lp5954
I1
aI5
asI68
(lp5955
I5
asI197
(lp5956
I4
aI5
asI70
(lp5957
I2
asI200
(lp5958
I5
aI3
asI177
(lp5959
I3
aI4
asI74
(lp5960
I3
aI1
asI75
(lp5961
I1
aI2
asI164
(lp5962
I4
aI2
asI81
(lp5963
I4
asI156
(lp5964
I4
aI2
asI83
(lp5965
I1
aI5
asI84
(lp5966
I1
asI87
(lp5967
I5
aI4
asI88
(lp5968
I4
aI2
asI89
(lp5969
I2
aI1
asI90
(lp5970
I1
asI143
(lp5971
I2
asI94
(lp5972
I1
aI4
asI95
(lp5973
I4
asI97
(lp5974
I2
asI136
(lp5975
I3
asI101
(lp5976
I5
aI1
asI165
(lp5977
I2
aI1
asI103
(lp5978
I1
asI110
(lp5979
I1
asI114
(lp5980
I1
aI3
asI115
(lp5981
I3
asI148
(lp5982
I4
aI2
asI122
(lp5983
I5
aI3
asI124
(lp5984
I2
aI3
asI195
(lp5985
I4
asa(dp5986
I128
(lp5987
I2
aI4
asI129
(lp5988
I2
asI4
(lp5989
I2
aI1
asI5
(lp5990
I2
asI135
(lp5991
I4
asI9
(lp5992
I4
asI11
(lp5993
I5
aI2
asI12
(lp5994
I2
aI5
asI13
(lp5995
I5
asI15
(lp5996
I4
asI17
(lp5997
I4
asI19
(lp5998
I3
asI149
(lp5999
I4
asI22
(lp6000
I1
asI137
(lp6001
I3
asI155
(lp6002
I2
asI29
(lp6003
I5
aI3
asI30
(lp6004
I3
aI4
asI31
(lp6005
I4
asI133
(lp6006
I5
asI33
(lp6007
I4
aI3
asI34
(lp6008
I3
aI4
asI35
(lp6009
I4
asI37
(lp6010
I2
asI168
(lp6011
I4
aI5
asI169
(lp6012
I5
aI1
asI170
(lp6013
I1
aI3
asI171
(lp6014
I3
asI44
(lp6015
I3
aI5
asI47
(lp6016
I1
aI2
asI48
(lp6017
I2
asI177
(lp6018
I3
aI4
asI178
(lp6019
I4
aI5
asI51
(lp6020
I5
asI180
(lp6021
I5
aI4
asI53
(lp6022
I5
aI4
asI54
(lp6023
I4
aI1
asI55
(lp6024
I1
aI3
asI56
(lp6025
I1
asI185
(lp6026
I4
aI3
asI186
(lp6027
I3
aI5
asI159
(lp6028
I2
aI3
asI189
(lp6029
I4
aI1
asI62
(lp6030
I4
aI1
asI181
(lp6031
I4
aI1
asI64
(lp6032
I5
asI160
(lp6033
I3
asI66
(lp6034
I2
aI4
asI67
(lp6035
I4
asI69
(lp6036
I4
aI2
asI70
(lp6037
I2
aI5
asI194
(lp6038
I2
asI76
(lp6039
I4
aI1
asI77
(lp6040
I1
aI3
asI141
(lp6041
I3
asI82
(lp6042
I4
asI84
(lp6043
I4
asI86
(lp6044
I5
aI4
asI87
(lp6045
I4
aI1
asI88
(lp6046
I1
aI2
asI89
(lp6047
I2
asI182
(lp6048
I1
aI4
asI95
(lp6049
I4
asI97
(lp6050
I1
asI187
(lp6051
I5
aI4
asI102
(lp6052
I1
aI2
asI103
(lp6053
I2
asI109
(lp6054
I3
asI114
(lp6055
I3
asI117
(lp6056
I3
aI2
asI190
(lp6057
I1
aI2
asI165
(lp6058
I2
asa(dp6059
I129
(lp6060
I4
aI3
asI2
(lp6061
I3
aI5
asI3
(lp6062
I5
asI196
(lp6063
I1
asI5
(lp6064
I4
asI10
(lp6065
I4
asI12
(lp6066
I1
aI5
asI13
(lp6067
I5
asI15
(lp6068
I3
asI145
(lp6069
I3
aI4
asI20
(lp6070
I4
asI149
(lp6071
I1
asI22
(lp6072
I5
aI4
asI23
(lp6073
I4
aI3
asI24
(lp6074
I3
aI2
asI25
(lp6075
I2
asI155
(lp6076
I1
aI3
asI156
(lp6077
I3
asI30
(lp6078
I2
aI1
asI31
(lp6079
I2
asI160
(lp6080
I2
aI5
asI161
(lp6081
I5
asI35
(lp6082
I2
asI165
(lp6083
I5
aI1
asI166
(lp6084
I1
aI5
asI167
(lp6085
I5
asI40
(lp6086
I4
asI169
(lp6087
I2
asI43
(lp6088
I5
aI4
asI45
(lp6089
I4
aI3
asI46
(lp6090
I3
aI5
asI175
(lp6091
I5
asI49
(lp6092
I2
aI5
asI50
(lp6093
I5
asI179
(lp6094
I5
asI52
(lp6095
I5
aI4
asI53
(lp6096
I4
aI3
asI54
(lp6097
I3
aI2
asI184
(lp6098
I1
aI4
asI185
(lp6099
I4
asI159
(lp6100
I4
aI2
asI60
(lp6101
I5
aI2
asI61
(lp6102
I2
aI3
asI62
(lp6103
I3
asI181
(lp6104
I3
asI192
(lp6105
I4
asI194
(lp6106
I5
asI152
(lp6107
I2
aI4
asI177
(lp6108
I4
aI3
asI69
(lp6109
I1
aI5
asI70
(lp6110
I5
asI199
(lp6111
I1
asI72
(lp6112
I1
aI4
asI140
(lp6113
I1
asI79
(lp6114
I2
aI3
asI173
(lp6115
I5
asI163
(lp6116
I5
aI1
asI84
(lp6117
I4
asI86
(lp6118
I5
aI2
asI87
(lp6119
I2
aI5
asI88
(lp6120
I5
asI90
(lp6121
I1
asI94
(lp6122
I1
asI130
(lp6123
I3
aI1
asI99
(lp6124
I3
aI2
asI178
(lp6125
I3
aI5
asI188
(lp6126
I1
asI106
(lp6127
I1
aI3
asI110
(lp6128
I1
asI113
(lp6129
I5
aI3
asI115
(lp6130
I3
aI5
asI116
(lp6131
I5
asI118
(lp6132
I2
asI153
(lp6133
I4
asI148
(lp6134
I1
aI5
asI122
(lp6135
I3
asI125
(lp6136
I2
aI1
asI126
(lp6137
I1
asa(dp6138
I192
(lp6139
I5
aI3
asI2
(lp6140
I5
aI3
asI3
(lp6141
I3
aI5
asI4
(lp6142
I3
aI5
asI150
(lp6143
I5
asI134
(lp6144
I1
asI7
(lp6145
I3
aI4
asI8
(lp6146
I4
aI1
asI137
(lp6147
I5
asI139
(lp6148
I5
aI3
asI12
(lp6149
I4
aI1
asI141
(lp6150
I3
asI144
(lp6151
I3
asI152
(lp6152
I4
aI5
asI20
(lp6153
I4
aI5
asI21
(lp6154
I4
aI5
asI22
(lp6155
I5
aI4
asI23
(lp6156
I4
aI1
asI24
(lp6157
I1
aI2
asI25
(lp6158
I2
asI154
(lp6159
I5
aI2
asI155
(lp6160
I2
aI3
asI156
(lp6161
I3
asI29
(lp6162
I2
aI1
asI30
(lp6163
I1
asI159
(lp6164
I1
asI176
(lp6165
I1
aI2
asI163
(lp6166
I5
asI165
(lp6167
I4
asI40
(lp6168
I5
aI3
asI41
(lp6169
I5
aI3
asI42
(lp6170
I3
aI1
asI43
(lp6171
I1
aI2
asI175
(lp6172
I5
aI1
asI48
(lp6173
I1
asI177
(lp6174
I2
asI51
(lp6175
I5
aI3
asI52
(lp6176
I3
aI2
asI53
(lp6177
I2
asI183
(lp6178
I2
asI140
(lp6179
I3
aI4
asI60
(lp6180
I3
aI2
asI61
(lp6181
I2
asI181
(lp6182
I4
asI64
(lp6183
I1
asI198
(lp6184
I4
aI3
asI194
(lp6185
I5
aI2
asI67
(lp6186
I5
aI4
asI196
(lp6187
I4
asI69
(lp6188
I5
aI3
asI70
(lp6189
I5
aI3
asI71
(lp6190
I5
aI3
asI72
(lp6191
I5
aI3
asI73
(lp6192
I3
aI4
asI74
(lp6193
I4
aI1
asI77
(lp6194
I3
asI81
(lp6195
I5
asI83
(lp6196
I3
asI88
(lp6197
I5
aI3
asI89
(lp6198
I3
aI5
asI90
(lp6199
I5
asI92
(lp6200
I4
aI1
asI94
(lp6201
I3
asI97
(lp6202
I1
aI3
asI101
(lp6203
I1
aI2
asI102
(lp6204
I1
asI171
(lp6205
I2
asI107
(lp6206
I4
aI3
asI108
(lp6207
I3
aI2
asI109
(lp6208
I2
aI3
asI114
(lp6209
I4
asI116
(lp6210
I1
asI121
(lp6211
I2
asI200
(lp6212
I4
asI170
(lp6213
I1
aI2
asI127
(lp6214
I4
asa(dp6215
I11
(lp6216
I4
aI5
asI13
(lp6217
I4
aI5
asI142
(lp6218
I5
asI15
(lp6219
I5
aI1
asI16
(lp6220
I1
aI2
asI17
(lp6221
I2
asI146
(lp6222
I2
aI4
asI147
(lp6223
I4
asI22
(lp6224
I1
aI5
asI23
(lp6225
I1
asI153
(lp6226
I2
asI26
(lp6227
I1
asI29
(lp6228
I1
asI158
(lp6229
I2
asI161
(lp6230
I3
aI2
asI162
(lp6231
I2
asI36
(lp6232
I5
aI3
asI37
(lp6233
I3
aI5
asI38
(lp6234
I5
asI40
(lp6235
I3
aI4
asI41
(lp6236
I4
aI5
asI170
(lp6237
I3
asI176
(lp6238
I5
aI4
asI45
(lp6239
I5
asI174
(lp6240
I5
asI47
(lp6241
I4
aI3
asI48
(lp6242
I3
aI2
asI177
(lp6243
I4
aI1
asI178
(lp6244
I1
aI5
asI179
(lp6245
I5
asI52
(lp6246
I1
asI181
(lp6247
I1
aI3
asI182
(lp6248
I3
asI55
(lp6249
I3
aI1
asI186
(lp6250
I4
aI3
asI187
(lp6251
I3
aI5
asI60
(lp6252
I1
aI2
asI61
(lp6253
I2
asI190
(lp6254
I3
aI4
asI64
(lp6255
I3
aI1
asI65
(lp6256
I1
aI4
asI139
(lp6257
I5
asI71
(lp6258
I5
asI73
(lp6259
I1
asI78
(lp6260
I2
asI141
(lp6261
I1
aI5
asI85
(lp6262
I1
aI5
asI88
(lp6263
I3
aI2
asI92
(lp6264
I1
asI95
(lp6265
I5
aI2
asI97
(lp6266
I5
asI151
(lp6267
I4
asI99
(lp6268
I2
asI165
(lp6269
I2
asI104
(lp6270
I3
asI188
(lp6271
I5
aI3
asI144
(lp6272
I5
asI109
(lp6273
I3
asI112
(lp6274
I1
aI3
asI113
(lp6275
I3
asI119
(lp6276
I2
asI122
(lp6277
I3
asI126
(lp6278
I1
asa(dp6279
I130
(lp6280
I5
asI3
(lp6281
I5
asI132
(lp6282
I4
aI3
asI5
(lp6283
I1
aI3
asI6
(lp6284
I1
asI172
(lp6285
I3
asI10
(lp6286
I4
asI139
(lp6287
I5
asI12
(lp6288
I1
aI3
asI13
(lp6289
I3
asI138
(lp6290
I2
aI5
asI141
(lp6291
I5
asI19
(lp6292
I4
asI21
(lp6293
I1
asI151
(lp6294
I2
asI25
(lp6295
I3
asI154
(lp6296
I4
asI28
(lp6297
I5
asI30
(lp6298
I3
asI133
(lp6299
I3
aI2
asI176
(lp6300
I1
aI5
asI162
(lp6301
I4
aI1
asI35
(lp6302
I4
asI37
(lp6303
I5
asI166
(lp6304
I5
asI39
(lp6305
I1
aI5
asI40
(lp6306
I5
asI156
(lp6307
I2
aI3
asI42
(lp6308
I4
aI1
asI171
(lp6309
I1
aI3
asI44
(lp6310
I4
asI46
(lp6311
I5
aI3
asI47
(lp6312
I3
aI1
asI48
(lp6313
I1
aI4
asI177
(lp6314
I5
asI179
(lp6315
I4
aI3
asI180
(lp6316
I3
aI5
asI54
(lp6317
I3
asI184
(lp6318
I1
asI58
(lp6319
I2
asI187
(lp6320
I5
asI61
(lp6321
I5
asI134
(lp6322
I2
asI63
(lp6323
I4
asI192
(lp6324
I1
aI4
asI193
(lp6325
I4
asI67
(lp6326
I3
asI197
(lp6327
I1
asI71
(lp6328
I4
aI2
asI72
(lp6329
I2
aI4
asI76
(lp6330
I1
asI79
(lp6331
I2
aI1
asI80
(lp6332
I1
asI170
(lp6333
I4
aI1
asI87
(lp6334
I4
asI143
(lp6335
I2
aI5
asI98
(lp6336
I1
aI2
asI99
(lp6337
I2
asI195
(lp6338
I5
asI103
(lp6339
I4
aI3
asI104
(lp6340
I3
aI4
asI105
(lp6341
I4
asI107
(lp6342
I2
aI3
asI200
(lp6343
I3
aI1
asI189
(lp6344
I5
aI4
asI168
(lp6345
I5
asI147
(lp6346
I5
aI1
asI190
(lp6347
I4
aI5
asI118
(lp6348
I4
aI3
asI119
(lp6349
I3
aI1
asI120
(lp6350
I1
asI191
(lp6351
I5
aI1
asI124
(lp6352
I5
aI3
asI125
(lp6353
I3
aI2
asI126
(lp6354
I3
aI2
asI149
(lp6355
I5
asa(dp6356
I136
(lp6357
I2
asI139
(lp6358
I3
asI14
(lp6359
I1
asI143
(lp6360
I3
asI152
(lp6361
I5
asI18
(lp6362
I4
aI3
asI147
(lp6363
I3
aI5
asI148
(lp6364
I3
asI151
(lp6365
I1
aI5
asI24
(lp6366
I5
aI3
asI25
(lp6367
I3
aI1
asI26
(lp6368
I1
asI175
(lp6369
I1
asI156
(lp6370
I4
asI154
(lp6371
I5
asI158
(lp6372
I2
aI5
asI159
(lp6373
I5
asI161
(lp6374
I3
aI4
asI162
(lp6375
I4
asI35
(lp6376
I1
asI164
(lp6377
I4
asI38
(lp6378
I1
aI2
asI167
(lp6379
I5
asI169
(lp6380
I3
aI2
asI170
(lp6381
I2
aI4
asI44
(lp6382
I1
aI4
asI47
(lp6383
I4
aI3
asI48
(lp6384
I3
aI5
asI200
(lp6385
I1
asI52
(lp6386
I3
asI181
(lp6387
I4
aI1
asI55
(lp6388
I2
aI5
asI58
(lp6389
I2
aI1
asI65
(lp6390
I4
asI194
(lp6391
I2
asI67
(lp6392
I5
aI2
asI69
(lp6393
I2
asI198
(lp6394
I4
asI72
(lp6395
I5
aI2
asI73
(lp6396
I2
aI3
asI74
(lp6397
I3
asI183
(lp6398
I3
asI78
(lp6399
I1
aI4
asI81
(lp6400
I3
asI84
(lp6401
I3
aI4
asI85
(lp6402
I4
aI3
asI87
(lp6403
I3
aI4
asI88
(lp6404
I4
asI90
(lp6405
I5
asI92
(lp6406
I2
asI186
(lp6407
I1
asI96
(lp6408
I1
asI166
(lp6409
I3
aI5
asI103
(lp6410
I5
asI105
(lp6411
I2
asI112
(lp6412
I3
asI118
(lp6413
I3
asI122
(lp6414
I2
aI3
asa(dp6415
I2
(lp6416
I1
aI3
asI3
(lp6417
I3
asI13
(lp6418
I2
asI16
(lp6419
I5
asI18
(lp6420
I4
aI3
asI19
(lp6421
I3
aI1
asI20
(lp6422
I1
aI3
asI141
(lp6423
I2
aI1
asI25
(lp6424
I5
asI154
(lp6425
I2
aI5
asI27
(lp6426
I1
aI3
asI157
(lp6427
I2
aI1
asI158
(lp6428
I1
asI31
(lp6429
I5
asI33
(lp6430
I2
aI5
asI155
(lp6431
I5
asI36
(lp6432
I3
asI166
(lp6433
I2
asI39
(lp6434
I5
asI41
(lp6435
I4
asI170
(lp6436
I5
asI172
(lp6437
I2
asI45
(lp6438
I4
asI47
(lp6439
I2
aI3
asI176
(lp6440
I4
aI2
asI178
(lp6441
I4
asI51
(lp6442
I2
aI3
asI52
(lp6443
I3
asI183
(lp6444
I3
aI2
asI184
(lp6445
I3
aI2
asI61
(lp6446
I3
asI65
(lp6447
I4
aI2
asI66
(lp6448
I2
aI4
asI67
(lp6449
I4
asI69
(lp6450
I2
asI198
(lp6451
I4
aI2
asI200
(lp6452
I3
asI175
(lp6453
I3
aI4
asI76
(lp6454
I1
aI4
asI77
(lp6455
I4
asI79
(lp6456
I5
asI81
(lp6457
I3
asI86
(lp6458
I5
aI1
asI88
(lp6459
I3
asI169
(lp6460
I3
aI5
asI91
(lp6461
I2
aI1
asI92
(lp6462
I1
asI97
(lp6463
I3
asI131
(lp6464
I3
asI189
(lp6465
I2
asI112
(lp6466
I3
aI1
asI113
(lp6467
I3
asI118
(lp6468
I5
aI3
asI119
(lp6469
I3
aI1
asI120
(lp6470
I1
asI124
(lp6471
I4
asI126
(lp6472
I2
asa(dp6473
I129
(lp6474
I1
aI2
asI130
(lp6475
I2
asI171
(lp6476
I3
asI5
(lp6477
I2
aI1
asI6
(lp6478
I1
asI10
(lp6479
I2
aI3
asI11
(lp6480
I2
asI140
(lp6481
I4
asI175
(lp6482
I3
aI5
asI143
(lp6483
I5
aI2
asI144
(lp6484
I5
aI2
asI17
(lp6485
I3
asI146
(lp6486
I2
asI21
(lp6487
I1
asI151
(lp6488
I5
asI25
(lp6489
I4
aI3
asI154
(lp6490
I5
aI3
asI27
(lp6491
I5
asI156
(lp6492
I3
asI29
(lp6493
I1
asI161
(lp6494
I2
asI155
(lp6495
I3
aI2
asI165
(lp6496
I5
asI39
(lp6497
I1
aI4
asI40
(lp6498
I1
asI169
(lp6499
I5
aI1
asI43
(lp6500
I4
asI45
(lp6501
I5
asI47
(lp6502
I5
aI1
asI48
(lp6503
I1
aI3
asI49
(lp6504
I3
asI178
(lp6505
I5
aI4
asI179
(lp6506
I5
aI4
asI52
(lp6507
I4
asI181
(lp6508
I4
aI2
asI54
(lp6509
I3
aI4
asI176
(lp6510
I5
asI186
(lp6511
I3
asI59
(lp6512
I4
asI138
(lp6513
I5
aI2
asI62
(lp6514
I2
aI5
asI65
(lp6515
I2
aI1
asI66
(lp6516
I1
asI139
(lp6517
I2
aI4
asI182
(lp6518
I2
aI5
asI198
(lp6519
I1
asI72
(lp6520
I3
aI2
asI73
(lp6521
I2
aI3
asI77
(lp6522
I1
aI2
asI83
(lp6523
I1
aI5
asI84
(lp6524
I5
asI86
(lp6525
I5
asI185
(lp6526
I3
aI2
asI88
(lp6527
I4
asI90
(lp6528
I1
aI3
asI167
(lp6529
I4
asI94
(lp6530
I3
asI98
(lp6531
I3
asI101
(lp6532
I2
aI5
asI102
(lp6533
I2
asI145
(lp6534
I2
aI3
asI105
(lp6535
I5
asI107
(lp6536
I1
aI2
asI108
(lp6537
I2
asI180
(lp6538
I4
aI2
asI114
(lp6539
I1
asI153
(lp6540
I5
aI3
asI125
(lp6541
I1
asa(dp6542
I2
(lp6543
I1
aI3
asI3
(lp6544
I3
asI132
(lp6545
I2
aI4
asI133
(lp6546
I4
asI193
(lp6547
I1
asI8
(lp6548
I2
aI4
asI9
(lp6549
I4
asI138
(lp6550
I3
asI11
(lp6551
I1
aI2
asI12
(lp6552
I2
asI142
(lp6553
I4
aI3
asI143
(lp6554
I3
aI1
asI144
(lp6555
I1
aI3
asI17
(lp6556
I3
aI5
asI18
(lp6557
I5
asI171
(lp6558
I1
asI20
(lp6559
I3
aI5
asI149
(lp6560
I1
asI24
(lp6561
I3
asI196
(lp6562
I1
asI155
(lp6563
I4
aI5
asI156
(lp6564
I5
aI2
asI29
(lp6565
I1
asI158
(lp6566
I5
asI32
(lp6567
I5
aI1
asI33
(lp6568
I1
aI5
asI34
(lp6569
I5
asI180
(lp6570
I1
aI2
asI36
(lp6571
I1
asI41
(lp6572
I5
aI4
asI42
(lp6573
I4
aI3
asI43
(lp6574
I3
aI2
asI44
(lp6575
I2
aI4
asI157
(lp6576
I2
aI5
asI176
(lp6577
I5
aI1
asI136
(lp6578
I5
aI1
asI178
(lp6579
I5
asI52
(lp6580
I1
aI4
asI53
(lp6581
I4
asI184
(lp6582
I3
asI57
(lp6583
I4
aI2
asI58
(lp6584
I2
aI1
asI59
(lp6585
I1
asI62
(lp6586
I2
aI5
asI63
(lp6587
I2
asI160
(lp6588
I3
aI2
asI66
(lp6589
I4
asI152
(lp6590
I4
asI68
(lp6591
I4
aI1
asI69
(lp6592
I1
aI5
asI181
(lp6593
I2
asI161
(lp6594
I2
asI72
(lp6595
I5
aI4
asI73
(lp6596
I4
aI1
asI74
(lp6597
I1
aI4
asI75
(lp6598
I1
asI78
(lp6599
I5
asI80
(lp6600
I3
asI90
(lp6601
I1
asI93
(lp6602
I1
aI4
asI94
(lp6603
I4
asI98
(lp6604
I4
asI100
(lp6605
I4
asI104
(lp6606
I5
asI106
(lp6607
I2
aI5
asI109
(lp6608
I1
asI190
(lp6609
I3
asI170
(lp6610
I1
aI4
asI120
(lp6611
I1
aI4
asI121
(lp6612
I4
asI125
(lp6613
I2
aI1
asa(dp6614
I128
(lp6615
I3
aI2
asI129
(lp6616
I2
asI4
(lp6617
I5
aI3
asI6
(lp6618
I3
asI135
(lp6619
I1
aI4
asI136
(lp6620
I4
asI11
(lp6621
I2
asI14
(lp6622
I4
asI143
(lp6623
I5
asI17
(lp6624
I5
asI19
(lp6625
I4
aI3
asI21
(lp6626
I3
asI153
(lp6627
I4
asI152
(lp6628
I1
aI4
asI132
(lp6629
I4
asI27
(lp6630
I3
aI5
asI30
(lp6631
I5
aI2
asI159
(lp6632
I3
asI32
(lp6633
I2
asI35
(lp6634
I4
asI164
(lp6635
I2
aI1
asI37
(lp6636
I5
aI4
asI39
(lp6637
I4
aI1
asI40
(lp6638
I1
aI3
asI145
(lp6639
I2
asI171
(lp6640
I2
asI45
(lp6641
I3
asI175
(lp6642
I2
aI4
asI178
(lp6643
I4
aI2
asI179
(lp6644
I2
aI1
asI155
(lp6645
I2
asI158
(lp6646
I3
aI4
asI54
(lp6647
I2
asI134
(lp6648
I5
aI1
asI180
(lp6649
I1
asI59
(lp6650
I4
asI188
(lp6651
I5
asI61
(lp6652
I1
aI5
asI62
(lp6653
I5
asI64
(lp6654
I4
aI3
asI66
(lp6655
I3
aI1
asI195
(lp6656
I5
asI197
(lp6657
I3
aI5
asI198
(lp6658
I5
asI200
(lp6659
I3
aI1
asI76
(lp6660
I5
aI1
asI77
(lp6661
I1
aI5
asI78
(lp6662
I5
asI190
(lp6663
I2
asI80
(lp6664
I1
asI142
(lp6665
I2
aI5
asI88
(lp6666
I3
asI93
(lp6667
I4
aI2
asI94
(lp6668
I2
aI3
asI95
(lp6669
I3
asI165
(lp6670
I1
asI187
(lp6671
I3
aI5
asI102
(lp6672
I2
aI5
asI103
(lp6673
I5
asI105
(lp6674
I2
aI4
asI106
(lp6675
I2
asI109
(lp6676
I3
asI112
(lp6677
I3
asI115
(lp6678
I4
aI3
asI116
(lp6679
I3
aI5
asI117
(lp6680
I5
aI2
asI119
(lp6681
I5
asI121
(lp6682
I4
asI126
(lp6683
I5
aI4
asa.