(lp1
(dp2
I193
(lp3
I2
aI5
aI1
aI3
aI4
asI163
(lp4
I5
aI3
asI132
(lp5
I4
aI3
aI1
aI2
aI5
asI167
(lp6
I1
aI3
aI5
asI72
(lp7
I1
aI5
aI3
aI4
asI119
(lp8
I3
aI2
asI76
(lp9
I4
aI2
aI3
asI45
(lp10
I3
asI143
(lp11
I2
aI3
asI82
(lp12
I4
aI3
aI2
aI5
aI1
asI83
(lp13
I3
aI2
aI5
aI1
asI87
(lp14
I1
aI2
aI4
aI3
aI5
asI191
(lp15
I5
aI2
aI1
asa(dp16
I3
(lp17
I5
aI1
aI3
aI4
aI2
asI37
(lp18
I1
aI4
aI3
aI2
asI7
(lp19
I4
aI3
aI2
asI137
(lp20
I5
aI3
aI1
asI78
(lp21
I2
aI5
asI81
(lp22
I4
aI1
asI51
(lp23
I2
aI4
aI1
aI3
asI116
(lp24
I3
aI4
asI174
(lp25
I2
asI153
(lp26
I4
aI1
aI3
aI5
asI122
(lp27
I5
aI2
aI1
aI3
aI4
asI91
(lp28
I5
aI4
aI2
aI1
asI189
(lp29
I3
aI4
aI2
aI5
asa(dp30
I67
(lp31
I2
asI100
(lp32
I1
aI2
aI4
asI108
(lp33
I4
aI3
aI5
aI1
aI2
asI76
(lp34
I5
aI1
aI4
aI3
asI109
(lp35
I3
aI4
aI5
aI1
asI173
(lp36
I5
asI17
(lp37
I2
asI21
(lp38
I2
aI5
aI1
asI184
(lp39
I1
asI89
(lp40
I2
aI3
aI4
aI5
aI1
asa(dp41
I2
(lp42
I2
aI5
aI3
asI199
(lp43
I5
asI77
(lp44
I1
asI83
(lp45
I4
aI2
aI5
aI1
asI183
(lp46
I1
aI3
aI5
aI2
aI4
asI124
(lp47
I2
aI5
asa(dp48
I64
(lp49
I1
asI96
(lp50
I1
aI5
aI4
aI3
asI131
(lp51
I1
aI4
aI3
aI5
asI5
(lp52
I2
asI70
(lp53
I1
aI4
aI2
aI3
asI82
(lp54
I2
aI3
aI1
aI4
asI115
(lp55
I4
asI179
(lp56
I3
asI155
(lp57
I3
asI93
(lp58
I3
asa(dp59
I97
(lp60
I4
aI1
aI3
asI35
(lp61
I4
aI1
aI2
aI3
asI71
(lp62
I2
aI1
aI3
asI10
(lp63
I3
aI4
aI2
aI1
asI151
(lp64
I1
aI2
aI4
aI5
asI109
(lp65
I4
aI3
aI1
aI2
asI3
(lp66
I2
aI1
asI119
(lp67
I1
aI2
aI5
asI29
(lp68
I2
aI3
aI5
aI1
asI94
(lp69
I2
aI5
asa(dp70
I160
(lp71
I5
aI2
aI3
aI4
aI1
asI161
(lp72
I2
aI3
aI5
aI4
aI1
asI2
(lp73
I4
asI115
(lp74
I5
aI2
asI68
(lp75
I2
aI5
aI4
aI1
aI3
asI75
(lp76
I4
aI1
aI2
aI5
aI3
asI109
(lp77
I1
aI2
aI5
aI4
aI3
asI142
(lp78
I2
aI4
asI141
(lp79
I2
aI4
aI5
aI3
aI1
asI113
(lp80
I5
aI2
aI4
aI1
aI3
asI82
(lp81
I2
aI1
aI3
aI4
aI5
asI51
(lp82
I5
aI1
aI4
asI20
(lp83
I5
asI26
(lp84
I5
asI91
(lp85
I5
aI2
asI93
(lp86
I5
aI2
asa(dp87
I64
(lp88
I3
aI1
aI4
aI5
asI96
(lp89
I2
aI4
asI164
(lp90
I5
aI1
aI3
aI4
aI2
asI100
(lp91
I1
aI5
asI199
(lp92
I2
aI1
aI3
asI167
(lp93
I3
asI9
(lp94
I1
asI119
(lp95
I2
asI15
(lp96
I2
aI4
asI195
(lp97
I4
aI1
aI5
aI3
aI2
asI180
(lp98
I4
aI1
aI2
asI22
(lp99
I4
aI3
aI2
aI1
aI5
asI87
(lp100
I5
asI132
(lp101
I5
aI2
aI1
aI4
asI157
(lp102
I2
aI4
aI5
asI62
(lp103
I5
aI4
aI3
asa(dp104
I162
(lp105
I3
aI5
aI2
aI1
asI4
(lp106
I3
asI165
(lp107
I2
aI1
asI113
(lp108
I5
aI4
asI42
(lp109
I1
asI108
(lp110
I1
aI3
aI5
aI2
asI45
(lp111
I3
aI4
aI2
aI1
asI176
(lp112
I5
aI1
asI17
(lp113
I2
aI5
aI1
aI3
aI4
asI84
(lp114
I5
aI2
aI4
aI1
aI3
asI85
(lp115
I2
aI5
aI4
aI1
aI3
asI182
(lp116
I3
aI5
aI2
aI1
asI88
(lp117
I2
aI5
aI1
aI4
asI57
(lp118
I3
aI1
aI4
asI126
(lp119
I5
aI1
asa(dp120
I65
(lp121
I5
aI3
aI1
aI2
aI4
asI66
(lp122
I5
aI3
aI1
aI2
aI4
asI164
(lp123
I1
asI68
(lp124
I1
aI2
aI3
asI193
(lp125
I4
aI5
aI1
asI10
(lp126
I3
asI108
(lp127
I3
asI111
(lp128
I5
aI2
aI1
asI113
(lp129
I1
aI4
asI148
(lp130
I5
aI4
aI1
asI181
(lp131
I5
aI1
asI150
(lp132
I4
aI1
aI5
aI2
aI3
asI36
(lp133
I5
aI1
aI3
asI30
(lp134
I5
aI2
aI1
aI3
asa(dp135
I102
(lp136
I3
aI5
aI4
asI74
(lp137
I2
asI15
(lp138
I3
aI4
asI80
(lp139
I3
aI4
aI2
asI153
(lp140
I2
asI27
(lp141
I2
aI1
asI60
(lp142
I5
asI62
(lp143
I4
asa(dp144
I97
(lp145
I5
aI4
aI2
aI1
asI34
(lp146
I1
aI4
asI164
(lp147
I1
aI5
asI70
(lp148
I1
aI2
aI3
aI4
asI7
(lp149
I2
asI104
(lp150
I2
aI1
aI4
aI5
aI3
asI137
(lp151
I2
asI174
(lp152
I4
aI3
aI2
aI5
asI112
(lp153
I1
aI5
aI2
asI115
(lp154
I2
asI180
(lp155
I4
aI2
aI1
aI3
aI5
asI150
(lp156
I2
aI1
aI3
asI23
(lp157
I4
aI2
asI196
(lp158
I4
aI1
aI3
asI30
(lp159
I2
asa(dp160
I160
(lp161
I1
aI4
aI3
asI71
(lp162
I2
asI12
(lp163
I5
aI1
aI4
aI2
asI78
(lp164
I2
aI5
aI4
aI3
asI177
(lp165
I2
asI154
(lp166
I3
aI4
aI5
aI1
asI24
(lp167
I5
aI3
aI2
aI4
asI185
(lp168
I5
asI58
(lp169
I2
asI27
(lp170
I2
aI5
aI3
asI61
(lp171
I5
aI3
aI1
aI4
asI63
(lp172
I1
aI5
aI4
asa(dp173
I100
(lp174
I1
aI3
asI165
(lp175
I5
aI3
asI199
(lp176
I1
aI5
aI2
asI139
(lp177
I1
aI5
aI2
aI3
asI83
(lp178
I1
aI5
aI3
aI2
asI20
(lp179
I1
aI4
aI5
aI2
asI28
(lp180
I4
aI1
asa(dp181
I193
(lp182
I4
aI5
asI145
(lp183
I1
aI2
asI40
(lp184
I5
aI3
asI9
(lp185
I1
aI3
aI2
aI4
aI5
asI108
(lp186
I1
aI3
asI77
(lp187
I2
aI1
asI184
(lp188
I2
aI3
aI5
asI17
(lp189
I3
aI1
asI116
(lp190
I3
asI73
(lp191
I2
asI23
(lp192
I2
aI4
aI1
aI5
aI3
asI137
(lp193
I5
aI2
asI57
(lp194
I3
aI5
aI2
aI1
asI168
(lp195
I5
aI1
aI2
aI3
aI4
asI93
(lp196
I4
aI1
aI2
asI153
(lp197
I4
aI5
aI1
aI3
asa(dp198
I193
(lp199
I4
aI2
aI1
asI68
(lp200
I1
aI5
aI3
asI166
(lp201
I2
aI5
asI135
(lp202
I2
asI71
(lp203
I3
asI77
(lp204
I4
aI3
asI145
(lp205
I2
aI3
aI5
asI54
(lp206
I4
aI1
aI2
asI152
(lp207
I5
aI2
asI126
(lp208
I2
aI3
aI5
aI1
aI4
asa(dp209
I185
(lp210
I5
aI1
aI2
aI3
asI90
(lp211
I2
aI3
aI4
aI5
asI51
(lp212
I4
aI2
aI5
asI79
(lp213
I2
aI3
aI5
aI4
asa(dp214
I163
(lp215
I4
asI69
(lp216
I4
aI2
aI5
aI1
asI6
(lp217
I1
aI3
aI4
asI138
(lp218
I3
aI1
aI2
asI43
(lp219
I5
aI1
aI3
asI82
(lp220
I2
asI112
(lp221
I3
aI5
asI18
(lp222
I3
aI1
asI115
(lp223
I4
aI1
aI2
aI3
asI152
(lp224
I5
asI89
(lp225
I4
aI5
aI3
asI27
(lp226
I3
aI4
asI92
(lp227
I3
aI4
aI2
aI5
aI1
asa(dp228
I198
(lp229
I3
aI4
aI1
aI2
aI5
asI139
(lp230
I4
aI3
asI132
(lp231
I5
aI4
aI2
asI197
(lp232
I5
aI3
aI4
aI1
aI2
asI6
(lp233
I3
aI2
aI5
aI4
aI1
asI199
(lp234
I4
aI1
aI2
asI169
(lp235
I4
asI10
(lp236
I3
aI5
asI107
(lp237
I2
aI4
asI13
(lp238
I3
aI4
aI1
asI82
(lp239
I1
aI5
asI21
(lp240
I3
asI119
(lp241
I5
aI4
aI2
asI158
(lp242
I5
aI4
aI1
asa(dp243
I114
(lp244
I3
aI5
aI2
aI1
asI119
(lp245
I3
asI139
(lp246
I1
aI4
asI23
(lp247
I4
aI1
aI2
aI3
aI5
asa(dp248
I192
(lp249
I5
aI2
aI4
asI194
(lp250
I2
aI5
aI4
aI1
aI3
asI197
(lp251
I4
aI1
aI5
aI3
asI38
(lp252
I4
aI2
asI72
(lp253
I3
asI75
(lp254
I5
aI4
aI3
asI12
(lp255
I5
aI1
asI77
(lp256
I3
aI1
aI4
aI2
asI14
(lp257
I5
aI1
aI4
aI3
aI2
asI179
(lp258
I5
asI149
(lp259
I1
aI4
aI5
aI2
aI3
asI25
(lp260
I5
asI122
(lp261
I5
aI4
aI1
aI2
aI3
asI27
(lp262
I1
aI4
aI2
asI158
(lp263
I1
aI3
aI5
aI4
asI191
(lp264
I3
aI5
aI2
aI4
aI1
asa(dp265
I164
(lp266
I3
aI2
asI69
(lp267
I1
aI5
aI3
aI2
aI4
asI135
(lp268
I1
aI2
asI141
(lp269
I1
aI3
aI2
aI4
aI5
asI80
(lp270
I4
aI5
asI120
(lp271
I4
aI2
aI1
asI84
(lp272
I1
asI56
(lp273
I1
aI3
aI4
aI5
asI89
(lp274
I5
aI3
aI4
aI2
asI26
(lp275
I4
aI3
aI2
aI5
asa(dp276
I198
(lp277
I2
aI4
aI3
aI5
asI97
(lp278
I4
aI5
aI3
aI1
aI2
asI66
(lp279
I2
asI36
(lp280
I1
aI4
aI3
asI98
(lp281
I5
aI3
aI4
aI1
asI146
(lp282
I2
aI1
asI167
(lp283
I5
aI3
aI2
aI1
asI106
(lp284
I1
aI4
aI5
aI3
asI132
(lp285
I5
aI4
aI2
aI1
aI3
asI13
(lp286
I5
aI2
aI4
aI1
asI113
(lp287
I3
aI4
aI5
aI1
aI2
asI82
(lp288
I5
aI3
asI193
(lp289
I4
aI3
asI197
(lp290
I4
aI2
aI3
aI5
aI1
asI25
(lp291
I4
aI5
aI1
aI3
aI2
asI122
(lp292
I3
aI1
aI4
aI2
aI5
asI95
(lp293
I5
asa(dp294
I156
(lp295
I2
aI5
asI108
(lp296
I3
aI5
asI159
(lp297
I1
aI5
asa(dp298
I66
(lp299
I4
aI2
asI177
(lp300
I2
aI5
aI3
aI1
asI40
(lp301
I5
aI3
asI139
(lp302
I2
aI5
asI174
(lp303
I1
asI143
(lp304
I5
aI2
aI4
asI113
(lp305
I5
aI4
aI3
asI115
(lp306
I3
aI2
aI1
aI5
asI151
(lp307
I3
aI4
aI1
asI136
(lp308
I2
aI5
aI3
aI4
aI1
asI59
(lp309
I2
aI5
aI4
aI3
aI1
asI190
(lp310
I1
aI5
asa(dp311
I195
(lp312
I4
asI37
(lp313
I5
aI3
aI2
asI135
(lp314
I3
asI104
(lp315
I2
aI1
aI3
asI74
(lp316
I5
asI20
(lp317
I3
aI4
aI5
asI117
(lp318
I1
aI2
aI5
aI4
aI3
asI118
(lp319
I2
asI148
(lp320
I2
aI4
aI1
aI3
asa(dp321
I5
(lp322
I4
aI5
aI3
asI40
(lp323
I5
aI3
aI1
asI10
(lp324
I3
aI1
aI4
aI5
asI119
(lp325
I1
aI2
aI4
aI3
aI5
asI44
(lp326
I1
asI186
(lp327
I4
aI2
aI5
aI3
aI1
asI150
(lp328
I2
aI4
aI5
aI3
asI55
(lp329
I3
aI1
aI4
asI185
(lp330
I5
aI4
aI2
aI3
aI1
asI154
(lp331
I5
aI3
asI42
(lp332
I5
aI1
aI4
asI133
(lp333
I4
aI3
aI5
asa(dp334
I72
(lp335
I2
aI3
aI5
aI4
asI14
(lp336
I4
aI2
aI3
asI21
(lp337
I2
aI5
asI119
(lp338
I2
aI5
aI4
aI1
aI3
asI24
(lp339
I1
asI186
(lp340
I1
aI5
aI3
asI62
(lp341
I4
aI1
aI2
aI5
aI3
asI63
(lp342
I1
aI2
aI4
aI5
asa(dp343
I161
(lp344
I3
aI1
aI4
asI70
(lp345
I2
aI4
asI7
(lp346
I3
aI2
aI5
aI4
aI1
asI104
(lp347
I2
aI4
aI5
aI3
asI124
(lp348
I4
aI5
aI3
aI1
aI2
asI74
(lp349
I3
aI5
aI4
aI2
asI78
(lp350
I3
aI5
aI2
aI4
asI111
(lp351
I3
asI81
(lp352
I4
aI1
asI179
(lp353
I1
asI54
(lp354
I3
aI4
aI1
aI2
asI121
(lp355
I5
aI4
aI3
asI28
(lp356
I5
aI2
aI3
aI1
asa(dp357
I66
(lp358
I4
aI3
aI1
aI5
aI2
asI132
(lp359
I3
asI175
(lp360
I4
aI2
aI5
asI180
(lp361
I1
asI85
(lp362
I1
aI4
aI2
asI152
(lp363
I4
aI3
aI2
aI1
asI123
(lp364
I5
aI2
aI4
asI30
(lp365
I4
aI1
aI3
asa(dp366
I97
(lp367
I5
aI1
asI67
(lp368
I5
aI4
aI2
asI4
(lp369
I3
aI1
aI5
aI4
asI8
(lp370
I1
aI3
aI5
aI2
asI73
(lp371
I2
aI5
aI4
asI171
(lp372
I3
asI174
(lp373
I2
aI5
aI3
asI16
(lp374
I3
aI4
aI5
aI1
aI2
asI99
(lp375
I1
aI2
aI4
aI3
aI5
asI151
(lp376
I2
aI3
aI4
asI188
(lp377
I3
aI4
aI1
aI2
asI93
(lp378
I4
aI5
aI2
aI1
asa(dp379
I164
(lp380
I4
aI3
aI1
asI112
(lp381
I2
aI5
asI146
(lp382
I2
aI3
aI1
aI4
asI183
(lp383
I4
aI1
aI3
aI5
asI122
(lp384
I1
aI5
aI4
aI3
aI2
asI123
(lp385
I1
asI190
(lp386
I5
aI2
aI4
aI3
asI31
(lp387
I2
aI4
aI3
aI5
aI1
asa(dp388
I98
(lp389
I2
aI5
asI67
(lp390
I2
aI1
asI36
(lp391
I4
aI2
aI1
aI3
aI5
asI6
(lp392
I4
aI1
aI5
asI172
(lp393
I2
aI5
aI3
asI170
(lp394
I5
aI3
aI2
aI4
asI76
(lp395
I2
aI4
aI1
aI3
asI46
(lp396
I2
asI175
(lp397
I5
aI3
aI4
aI1
aI2
asI158
(lp398
I1
aI2
aI5
aI4
aI3
asI54
(lp399
I4
aI3
aI2
aI1
asI183
(lp400
I5
aI3
aI2
aI1
asI190
(lp401
I2
aI4
asI30
(lp402
I1
aI2
aI5
aI4
aI3
asa(dp403
I144
(lp404
I3
aI1
aI4
asI38
(lp405
I4
aI5
aI3
aI1
asI161
(lp406
I1
aI4
asI139
(lp407
I1
asI175
(lp408
I5
asI112
(lp409
I4
aI3
aI1
aI2
asI87
(lp410
I1
aI5
asI121
(lp411
I4
aI2
aI1
aI5
aI3
asI90
(lp412
I2
aI3
aI5
aI1
aI4
asI157
(lp413
I4
aI1
aI5
asI62
(lp414
I4
asa(dp415
I128
(lp416
I4
aI2
asI37
(lp417
I3
aI5
aI2
asI136
(lp418
I2
aI4
aI3
aI5
aI1
asI9
(lp419
I5
aI4
aI2
aI3
asI111
(lp420
I1
aI4
aI5
aI3
asI183
(lp421
I3
aI1
asI28
(lp422
I3
aI2
aI5
aI4
asI95
(lp423
I2
aI1
aI3
asa(dp424
I97
(lp425
I4
aI3
aI1
asI112
(lp426
I5
aI3
aI1
aI2
asI80
(lp427
I2
aI1
aI3
asI146
(lp428
I2
aI3
aI5
aI1
asI54
(lp429
I1
aI2
aI5
aI4
aI3
asI23
(lp430
I5
asa(dp431
I144
(lp432
I5
aI4
aI3
asI66
(lp433
I3
asI20
(lp434
I5
aI2
aI3
aI1
asI186
(lp435
I2
aI5
aI1
aI4
aI3
asI54
(lp436
I2
asa(dp437
I96
(lp438
I1
aI4
aI3
asI162
(lp439
I5
aI2
aI3
asI35
(lp440
I3
aI2
asI107
(lp441
I3
asI77
(lp442
I4
aI5
aI1
asI14
(lp443
I1
aI3
aI4
aI5
aI2
asI81
(lp444
I2
asI180
(lp445
I2
aI5
aI3
aI1
asI22
(lp446
I5
aI2
aI3
asa(dp447
I68
(lp448
I2
asI106
(lp449
I5
asI139
(lp450
I5
aI1
aI3
aI2
aI4
asI12
(lp451
I1
asI15
(lp452
I4
aI5
asI18
(lp453
I4
aI2
aI5
aI3
asI181
(lp454
I5
aI2
asI183
(lp455
I3
aI2
asa(dp456
I199
(lp457
I4
aI5
asI113
(lp458
I1
aI3
aI2
aI4
aI5
asI178
(lp459
I2
asI86
(lp460
I5
aI3
asI153
(lp461
I2
aI4
aI5
aI1
aI3
asI58
(lp462
I5
aI3
aI1
asI157
(lp463
I5
asI127
(lp464
I3
aI5
asa(dp465
I102
(lp466
I2
aI3
aI4
aI5
aI1
asI71
(lp467
I1
aI2
aI5
aI4
asI42
(lp468
I5
asI107
(lp469
I5
aI3
aI1
aI4
asI109
(lp470
I3
aI1
aI4
asI175
(lp471
I3
aI4
asI186
(lp472
I5
asa(dp473
I162
(lp474
I1
aI3
aI5
asI106
(lp475
I3
asI48
(lp476
I4
asI114
(lp477
I5
asI116
(lp478
I3
aI1
asI26
(lp479
I3
aI1
aI2
aI5
aI4
asa(dp480
I99
(lp481
I5
aI2
aI1
asI101
(lp482
I2
aI1
asI113
(lp483
I1
aI3
aI5
asI182
(lp484
I2
aI5
aI3
aI1
aI4
asI47
(lp485
I5
aI4
aI1
aI3
aI2
asI144
(lp486
I2
aI5
aI4
aI3
asI49
(lp487
I5
aI4
aI1
aI3
aI2
asI118
(lp488
I3
asI187
(lp489
I3
aI5
asI156
(lp490
I2
asI63
(lp491
I1
aI2
aI3
asa(dp492
I192
(lp493
I2
aI4
aI1
aI3
asI98
(lp494
I5
asI37
(lp495
I3
aI5
aI2
aI1
aI4
asI73
(lp496
I3
asI170
(lp497
I2
aI3
asI17
(lp498
I2
aI3
aI5
aI4
aI1
asI105
(lp499
I1
aI5
aI3
asI24
(lp500
I5
aI4
aI2
aI3
asI152
(lp501
I5
aI2
aI4
asI27
(lp502
I5
aI2
aI3
aI4
asa(dp503
I38
(lp504
I1
asI107
(lp505
I3
aI2
aI4
aI5
asI191
(lp506
I4
aI2
asI182
(lp507
I5
aI4
aI3
aI1
aI2
asI183
(lp508
I4
aI3
aI1
aI2
aI5
asI184
(lp509
I3
aI1
aI2
aI5
asI25
(lp510
I2
aI5
aI3
aI4
aI1
asI155
(lp511
I4
aI1
aI3
asI62
(lp512
I4
aI2
aI3
aI5
aI1
asI63
(lp513
I2
aI3
aI5
aI1
asa(dp514
I6
(lp515
I4
aI1
aI3
asI103
(lp516
I5
aI1
asI113
(lp517
I4
aI3
aI2
aI5
asI179
(lp518
I2
aI4
aI3
aI5
asI52
(lp519
I2
aI3
asI149
(lp520
I4
aI5
asI86
(lp521
I1
aI4
asI59
(lp522
I3
aI5
asI62
(lp523
I3
aI2
aI1
asI127
(lp524
I2
asa(dp525
I43
(lp526
I4
aI1
aI2
aI3
asI4
(lp527
I5
aI3
aI1
aI4
aI2
asI5
(lp528
I5
aI3
aI1
aI4
aI2
asI107
(lp529
I4
aI2
aI5
aI3
asI143
(lp530
I1
aI4
aI3
aI2
aI5
asI18
(lp531
I3
asI185
(lp532
I3
aI1
aI5
aI4
aI2
asI164
(lp533
I1
asI186
(lp534
I1
aI3
aI5
asI156
(lp535
I1
asa(dp536
I176
(lp537
I3
asI98
(lp538
I3
asI5
(lp539
I5
aI2
aI1
asI7
(lp540
I1
aI3
asI34
(lp541
I1
aI2
aI3
aI5
asI80
(lp542
I1
aI5
asI148
(lp543
I3
aI5
aI4
asI158
(lp544
I2
aI1
aI4
aI3
asI31
(lp545
I2
aI5
aI4
asa(dp546
I80
(lp547
I1
aI2
asI102
(lp548
I2
asI16
(lp549
I3
aI5
aI2
aI4
asI51
(lp550
I3
aI5
aI1
aI4
asI125
(lp551
I1
aI4
aI5
aI2
aI3
asI126
(lp552
I4
asa(dp553
I130
(lp554
I4
aI1
aI2
aI3
aI5
asI99
(lp555
I2
aI4
asI188
(lp556
I1
asI77
(lp557
I2
aI4
aI1
aI5
asI179
(lp558
I1
aI2
aI4
aI3
aI5
asI22
(lp559
I1
aI5
aI3
asI88
(lp560
I4
aI3
asI121
(lp561
I3
aI4
aI2
aI5
asI156
(lp562
I4
aI2
aI1
aI3
aI5
asI157
(lp563
I2
aI1
aI4
aI3
asa(dp564
I2
(lp565
I1
aI3
aI4
asI115
(lp566
I4
aI5
asI132
(lp567
I1
aI3
aI5
aI4
asI37
(lp568
I4
aI3
asI108
(lp569
I1
aI3
aI5
aI2
aI4
asI76
(lp570
I4
aI2
asI109
(lp571
I1
asI18
(lp572
I3
aI1
aI4
aI5
aI2
asI19
(lp573
I1
aI4
aI5
asI196
(lp574
I3
aI4
aI1
aI2
asI86
(lp575
I2
aI3
aI5
aI4
aI1
asI151
(lp576
I3
aI2
aI4
aI1
asI57
(lp577
I4
asI93
(lp578
I1
aI5
aI4
aI3
asa(dp579
I136
(lp580
I3
aI1
aI5
aI2
asI15
(lp581
I3
aI2
aI4
aI1
asI111
(lp582
I3
aI4
asI179
(lp583
I1
aI3
aI2
aI4
asI148
(lp584
I5
aI2
aI1
aI4
aI3
asI143
(lp585
I2
aI1
asa(dp586
I132
(lp587
I2
aI5
aI4
asI197
(lp588
I4
asI72
(lp589
I4
asI140
(lp590
I3
aI4
asI78
(lp591
I2
asI184
(lp592
I4
aI5
aI1
aI3
aI2
asI147
(lp593
I2
aI3
asI56
(lp594
I1
asI92
(lp595
I1
aI4
aI2
aI3
asa(dp596
I131
(lp597
I2
asI164
(lp598
I5
aI4
asI5
(lp599
I2
aI1
asI42
(lp600
I2
aI4
aI3
aI5
asI17
(lp601
I5
aI4
aI2
aI1
aI3
asI18
(lp602
I4
aI2
aI5
aI1
aI3
asI150
(lp603
I2
aI3
aI4
aI5
aI1
asI58
(lp604
I5
aI4
aI3
aI1
asI155
(lp605
I3
aI2
aI4
asI60
(lp606
I3
aI1
aI5
aI2
asI30
(lp607
I4
aI5
aI1
asa(dp608
I98
(lp609
I3
asI171
(lp610
I1
asI144
(lp611
I2
aI4
asI51
(lp612
I1
asI54
(lp613
I3
aI2
asI124
(lp614
I3
aI4
asa(dp615
I128
(lp616
I3
aI2
aI1
asI161
(lp617
I5
aI1
aI4
aI2
aI3
asI98
(lp618
I3
aI1
aI5
asI3
(lp619
I4
aI2
aI5
aI3
aI1
asI69
(lp620
I1
aI5
aI2
asI199
(lp621
I3
aI5
aI2
aI1
asI72
(lp622
I4
aI5
asI107
(lp623
I4
aI1
asI162
(lp624
I5
aI1
aI4
aI2
aI3
asI78
(lp625
I3
aI5
aI1
asI176
(lp626
I2
aI5
aI3
aI4
aI1
asI113
(lp627
I3
aI5
aI2
aI4
asI179
(lp628
I3
aI5
aI4
asI52
(lp629
I5
asI171
(lp630
I1
aI4
asI86
(lp631
I5
asI148
(lp632
I2
aI4
aI1
aI3
asI116
(lp633
I4
aI2
asI26
(lp634
I2
aI3
asI182
(lp635
I4
aI1
aI2
aI5
asI63
(lp636
I4
aI1
asa(dp637
I179
(lp638
I2
aI3
aI1
aI5
asI4
(lp639
I3
asI118
(lp640
I3
aI1
aI5
asI38
(lp641
I5
aI1
aI4
asI122
(lp642
I1
aI2
aI3
asI172
(lp643
I2
aI4
aI3
aI1
aI5
asI173
(lp644
I4
aI3
asI83
(lp645
I2
asI117
(lp646
I3
aI1
aI5
aI2
aI4
asI22
(lp647
I5
aI2
aI3
aI4
aI1
asI186
(lp648
I3
aI4
aI2
asI26
(lp649
I3
aI4
asI195
(lp650
I2
aI3
aI1
aI4
aI5
asI90
(lp651
I1
aI3
aI2
asI31
(lp652
I3
asa(dp653
I4
(lp654
I4
aI2
aI1
asI197
(lp655
I5
aI4
aI1
aI3
asI106
(lp656
I1
aI3
asI78
(lp657
I2
asI61
(lp658
I4
asI145
(lp659
I3
asI117
(lp660
I3
asI87
(lp661
I3
aI4
asI153
(lp662
I3
aI1
aI5
aI2
asI29
(lp663
I4
aI1
aI3
aI2
aI5
asI190
(lp664
I2
aI3
asa(dp665
I128
(lp666
I1
aI4
aI5
aI2
asI193
(lp667
I1
asI199
(lp668
I1
aI5
aI3
aI2
asI179
(lp669
I5
aI3
aI4
asI56
(lp670
I1
aI3
aI4
aI5
aI2
asI157
(lp671
I5
aI1
asI190
(lp672
I4
aI5
aI1
aI2
aI3
asI191
(lp673
I5
aI1
aI4
aI2
asa(dp674
I65
(lp675
I3
aI1
aI4
asI4
(lp676
I1
aI5
asI72
(lp677
I5
aI3
aI2
aI1
aI4
asI175
(lp678
I1
aI2
aI4
asI144
(lp679
I4
aI1
aI3
asI114
(lp680
I5
aI3
aI1
asI119
(lp681
I3
aI4
aI1
aI5
asI153
(lp682
I5
aI3
asI60
(lp683
I5
asa(dp684
I39
(lp685
I5
aI3
aI1
aI2
asI136
(lp686
I3
aI2
asI111
(lp687
I1
aI5
aI2
aI3
asI144
(lp688
I4
aI1
aI3
aI2
aI5
asI50
(lp689
I1
aI5
aI4
aI2
aI3
asI53
(lp690
I4
aI5
aI1
aI2
asa(dp691
I65
(lp692
I3
aI1
aI4
aI5
aI2
asI162
(lp693
I2
aI1
asI196
(lp694
I5
aI3
asI198
(lp695
I3
aI4
aI5
asI70
(lp696
I1
aI3
aI2
aI5
asI8
(lp697
I3
asI43
(lp698
I2
aI5
aI3
aI4
asI79
(lp699
I2
aI5
aI3
aI4
aI1
asI157
(lp700
I1
asI155
(lp701
I5
aI1
aI2
asI125
(lp702
I4
asI94
(lp703
I2
aI3
aI4
aI1
aI5
asa(dp704
I98
(lp705
I2
asI101
(lp706
I3
aI1
aI2
aI4
asI145
(lp707
I1
aI5
aI3
aI2
aI4
asI142
(lp708
I4
aI5
aI1
asI81
(lp709
I5
aI2
aI4
aI3
aI1
asI121
(lp710
I2
aI1
aI4
aI5
aI3
asI23
(lp711
I4
aI5
aI3
asI120
(lp712
I5
aI2
aI1
aI4
aI3
asI57
(lp713
I1
aI2
asI186
(lp714
I4
asI191
(lp715
I5
aI2
aI4
aI3
asI165
(lp716
I5
aI2
aI4
asa(dp717
I194
(lp718
I2
aI1
asI7
(lp719
I3
aI5
aI1
aI2
asI40
(lp720
I1
aI5
aI4
asI172
(lp721
I2
aI5
aI3
aI1
aI4
asI76
(lp722
I1
aI5
asI17
(lp723
I5
aI2
aI4
asI179
(lp724
I3
aI1
aI4
aI5
aI2
asI57
(lp725
I2
aI3
aI5
asI186
(lp726
I4
aI3
aI5
aI2
asI63
(lp727
I5
aI3
aI2
aI4
aI1
asa(dp728
I161
(lp729
I5
asI170
(lp730
I3
aI1
asI111
(lp731
I3
asI80
(lp732
I2
asI85
(lp733
I1
aI3
aI2
asI62
(lp734
I3
aI2
aI1
asa(dp735
I133
(lp736
I5
aI1
asI139
(lp737
I4
aI2
asI109
(lp738
I3
aI1
aI4
aI2
asI13
(lp739
I3
aI2
aI4
aI5
asI50
(lp740
I3
aI5
aI2
aI4
asI101
(lp741
I2
aI3
aI4
asa(dp742
I129
(lp743
I1
aI3
aI4
aI5
aI2
asI2
(lp744
I5
asI100
(lp745
I5
aI3
aI4
aI1
aI2
asI101
(lp746
I3
aI5
aI4
aI1
aI2
asI166
(lp747
I4
aI5
asI193
(lp748
I4
aI2
aI3
aI5
asI169
(lp749
I4
aI1
aI3
aI5
asI141
(lp750
I4
asI190
(lp751
I5
asI151
(lp752
I5
asI157
(lp753
I5
aI4
asI69
(lp754
I2
aI5
aI4
aI1
asI37
(lp755
I3
aI4
asa(dp756
I192
(lp757
I2
aI3
aI1
aI5
asI98
(lp758
I4
aI3
aI1
asI35
(lp759
I4
aI2
asI66
(lp760
I4
aI2
asI46
(lp761
I3
aI5
aI4
aI2
aI1
asI155
(lp762
I2
aI1
aI4
asI150
(lp763
I1
aI2
asI87
(lp764
I5
aI4
aI1
aI3
aI2
asI123
(lp765
I2
aI1
aI5
asI61
(lp766
I5
aI2
asI190
(lp767
I5
aI4
aI2
aI3
asa(dp768
I68
(lp769
I3
aI2
aI5
aI1
asI105
(lp770
I4
aI2
aI5
aI3
aI1
asI42
(lp771
I5
aI1
asI184
(lp772
I5
asI152
(lp773
I2
aI4
aI3
asI186
(lp774
I3
asa(dp775
I48
(lp776
I3
aI2
aI1
asI5
(lp777
I3
aI4
asI200
(lp778
I1
aI5
aI2
aI3
aI4
asI45
(lp779
I3
aI5
aI2
aI1
asI111
(lp780
I3
asI16
(lp781
I2
asI153
(lp782
I3
asI60
(lp783
I2
aI4
aI1
aI5
aI3
asa(dp784
I129
(lp785
I1
aI3
aI4
asI102
(lp786
I4
aI5
aI2
asI193
(lp787
I3
asI105
(lp788
I2
aI3
asI46
(lp789
I1
aI5
aI4
asI49
(lp790
I5
aI3
aI2
aI1
asI115
(lp791
I1
asI182
(lp792
I3
aI4
aI1
asI87
(lp793
I5
aI1
aI4
aI3
aI2
asI152
(lp794
I2
aI5
asI26
(lp795
I5
asI92
(lp796
I5
asI159
(lp797
I2
aI1
asa(dp798
I161
(lp799
I3
aI5
asI34
(lp800
I4
asI99
(lp801
I4
aI2
aI3
asI164
(lp802
I4
asI169
(lp803
I5
aI2
aI4
aI1
aI3
asI171
(lp804
I5
aI4
asI140
(lp805
I1
aI3
asI82
(lp806
I2
asI175
(lp807
I1
aI4
aI2
aI3
asI114
(lp808
I5
aI2
aI1
aI3
aI4
asa(dp809
I32
(lp810
I1
aI3
asI67
(lp811
I5
aI3
aI2
aI4
asI37
(lp812
I1
aI5
aI4
aI2
aI3
asI38
(lp813
I5
asI40
(lp814
I5
aI2
aI4
aI3
asI106
(lp815
I3
aI4
aI1
asI82
(lp816
I5
aI2
aI1
aI4
aI3
asI144
(lp817
I5
aI4
aI3
asI177
(lp818
I3
aI4
aI2
aI5
asI50
(lp819
I3
aI4
aI1
aI5
aI2
asI91
(lp820
I5
asI29
(lp821
I3
asI62
(lp822
I4
aI2
asI146
(lp823
I3
aI5
aI2
aI4
asa(dp824
I128
(lp825
I1
aI3
aI5
asI5
(lp826
I2
aI3
asI134
(lp827
I1
asI9
(lp828
I1
asI170
(lp829
I4
aI1
asI143
(lp830
I4
aI2
aI1
aI5
asI119
(lp831
I3
aI4
asI155
(lp832
I5
aI4
aI1
aI3
aI2
asa(dp833
I198
(lp834
I4
aI2
aI3
aI1
asI77
(lp835
I1
aI3
aI2
aI5
aI4
asI15
(lp836
I5
aI3
aI2
asI148
(lp837
I1
aI3
asI21
(lp838
I1
aI4
aI5
asI118
(lp839
I5
asI25
(lp840
I5
asI61
(lp841
I4
aI3
aI2
aI5
aI1
asa(dp842
I33
(lp843
I1
aI5
asI195
(lp844
I4
asI103
(lp845
I1
asI168
(lp846
I5
aI3
aI1
aI4
asI170
(lp847
I5
aI1
aI4
asI11
(lp848
I3
aI1
aI2
asI146
(lp849
I2
asI115
(lp850
I4
aI2
aI3
aI1
aI5
asI21
(lp851
I5
aI2
asI24
(lp852
I2
aI5
aI3
aI4
aI1
asI187
(lp853
I4
aI2
aI5
aI3
asI135
(lp854
I4
aI3
aI2
aI1
asI199
(lp855
I4
aI3
aI5
aI1
asa(dp856
I96
(lp857
I5
aI3
asI131
(lp858
I1
asI167
(lp859
I2
aI1
aI4
asI77
(lp860
I4
aI3
aI2
aI1
aI5
asI17
(lp861
I4
aI2
aI5
aI1
asI178
(lp862
I3
aI5
aI4
aI1
asI181
(lp863
I3
aI4
aI5
aI1
aI2
asI185
(lp864
I5
asI190
(lp865
I3
aI1
aI2
aI4
asa(dp866
I163
(lp867
I4
aI1
aI5
aI3
aI2
asI68
(lp868
I1
aI5
aI3
aI2
aI4
asI168
(lp869
I3
asI13
(lp870
I5
aI3
asI195
(lp871
I1
aI4
asI29
(lp872
I4
aI2
aI5
aI1
aI3
asI95
(lp873
I2
aI5
aI1
asa(dp874
I132
(lp875
I1
aI5
asI135
(lp876
I3
aI4
aI1
asI74
(lp877
I1
aI2
aI3
asI167
(lp878
I2
aI3
aI4
aI1
aI5
asI44
(lp879
I4
aI2
aI1
aI5
asI178
(lp880
I4
aI2
aI1
asI81
(lp881
I5
aI4
aI1
aI2
aI3
asI82
(lp882
I4
aI1
aI2
aI5
aI3
asI120
(lp883
I1
asI126
(lp884
I3
aI1
aI5
aI2
asI191
(lp885
I3
aI1
aI2
asa(dp886
I162
(lp887
I3
aI5
aI2
aI1
aI4
asI131
(lp888
I5
aI1
aI3
aI2
asI133
(lp889
I1
aI3
aI2
aI5
aI4
asI134
(lp890
I3
asI168
(lp891
I2
aI1
aI5
aI4
aI3
asI139
(lp892
I3
aI1
aI4
aI2
aI5
asI140
(lp893
I3
aI1
aI4
asI17
(lp894
I4
aI1
asI148
(lp895
I3
asI118
(lp896
I4
aI5
aI2
asI183
(lp897
I3
asI153
(lp898
I2
aI3
aI1
asI126
(lp899
I2
aI5
aI4
asI197
(lp900
I3
aI2
asa(dp901
I130
(lp902
I1
aI2
asI38
(lp903
I3
aI2
asI104
(lp904
I2
aI4
asI76
(lp905
I4
aI2
asI178
(lp906
I3
aI2
aI4
asI83
(lp907
I3
asI117
(lp908
I1
asI185
(lp909
I5
aI1
aI4
asI122
(lp910
I2
aI4
aI5
aI1
aI3
asa(dp911
I33
(lp912
I2
aI4
aI1
aI3
aI5
asI132
(lp913
I2
aI3
aI4
aI5
aI1
asI133
(lp914
I3
aI4
asI8
(lp915
I1
aI5
aI4
aI3
asI107
(lp916
I4
aI3
aI1
aI2
asI144
(lp917
I5
aI3
asI146
(lp918
I3
aI5
aI2
aI4
aI1
asI188
(lp919
I1
aI2
aI5
aI4
asI62
(lp920
I1
aI3
aI2
asI31
(lp921
I5
asa(dp922
I96
(lp923
I3
aI1
asI161
(lp924
I4
aI3
aI1
aI5
asI131
(lp925
I2
aI1
aI5
asI168
(lp926
I4
asI127
(lp927
I1
asI45
(lp928
I3
asI150
(lp929
I3
aI2
aI4
aI1
asI88
(lp930
I5
aI4
aI3
asI123
(lp931
I3
aI2
aI5
aI1
asI29
(lp932
I1
aI2
asI95
(lp933
I2
aI3
aI1
aI5
aI4
asa(dp934
I193
(lp935
I2
aI5
aI3
aI1
asI97
(lp936
I1
aI5
aI2
aI4
aI3
asI39
(lp937
I1
aI4
aI5
aI2
aI3
asI9
(lp938
I1
aI5
aI3
aI2
aI4
asI10
(lp939
I5
asI161
(lp940
I1
aI2
aI4
asI51
(lp941
I5
aI1
asI116
(lp942
I5
asI153
(lp943
I1
asI26
(lp944
I5
aI1
aI4
asI28
(lp945
I1
asI95
(lp946
I5
aI1
asa(dp947
I75
(lp948
I4
asI134
(lp949
I4
aI3
aI5
aI2
asI7
(lp950
I5
aI2
aI4
aI3
asI73
(lp951
I5
aI1
asI187
(lp952
I1
aI3
aI2
asI43
(lp953
I1
aI5
asI46
(lp954
I5
aI4
aI1
asI17
(lp955
I4
aI1
aI5
asI53
(lp956
I5
aI1
aI3
asI118
(lp957
I5
asI120
(lp958
I1
aI2
asI184
(lp959
I3
aI5
asI95
(lp960
I1
asa(dp961
I161
(lp962
I3
asI3
(lp963
I3
aI1
asI42
(lp964
I5
aI3
asI78
(lp965
I5
aI4
aI3
asI47
(lp966
I3
aI4
asI80
(lp967
I4
aI3
aI1
aI5
aI2
asI174
(lp968
I2
aI4
asI86
(lp969
I1
aI5
aI4
asI58
(lp970
I5
aI1
aI4
asI111
(lp971
I5
asI156
(lp972
I5
asI181
(lp973
I5
aI3
aI4
aI2
asa(dp974
I69
(lp975
I2
aI3
aI4
asI38
(lp976
I2
aI1
aI3
asI145
(lp977
I5
aI3
aI1
aI2
asI9
(lp978
I2
aI3
asI138
(lp979
I1
aI3
aI2
aI4
aI5
asI125
(lp980
I3
aI4
asI81
(lp981
I2
aI3
aI1
aI4
aI5
asI137
(lp982
I5
aI1
aI3
aI2
aI4
asI57
(lp983
I5
aI3
aI2
aI1
aI4
asI124
(lp984
I2
aI3
aI4
aI1
aI5
asI93
(lp985
I4
aI2
asa(dp986
I65
(lp987
I4
aI5
aI2
asI162
(lp988
I2
aI5
aI1
aI3
aI4
asI163
(lp989
I5
aI1
asI132
(lp990
I2
aI4
aI1
asI5
(lp991
I2
aI1
aI4
aI3
aI5
asI165
(lp992
I1
asI193
(lp993
I2
aI1
asI114
(lp994
I5
aI2
asI179
(lp995
I2
aI5
aI3
aI4
aI1
asI180
(lp996
I5
aI3
asI151
(lp997
I4
aI3
aI1
aI5
aI2
asI68
(lp998
I4
aI2
aI1
aI5
aI3
asI37
(lp999
I2
aI1
aI4
aI5
asa(dp1000
I33
(lp1001
I3
aI5
aI1
aI2
asI163
(lp1002
I5
aI1
aI4
aI2
asI101
(lp1003
I1
aI3
aI5
aI2
aI4
asI102
(lp1004
I1
asI168
(lp1005
I2
asI10
(lp1006
I4
aI3
aI1
aI2
asI111
(lp1007
I4
aI3
aI1
aI5
asI150
(lp1008
I4
aI1
aI2
asI93
(lp1009
I1
asI133
(lp1010
I3
aI1
asa(dp1011
I166
(lp1012
I1
aI4
aI5
aI2
asI142
(lp1013
I3
aI1
aI2
asI157
(lp1014
I5
aI2
asI180
(lp1015
I5
asI89
(lp1016
I3
aI2
asI25
(lp1017
I5
asI154
(lp1018
I2
asI175
(lp1019
I4
aI3
aI5
aI1
aI2
asI93
(lp1020
I1
aI4
asI30
(lp1021
I2
aI4
asa(dp1022
I194
(lp1023
I5
aI2
aI1
asI164
(lp1024
I3
aI2
aI4
asI69
(lp1025
I2
aI5
aI1
aI3
aI4
asI38
(lp1026
I2
aI3
asI72
(lp1027
I3
asI9
(lp1028
I5
aI4
aI3
aI2
aI1
asI138
(lp1029
I2
aI1
aI5
aI3
asI11
(lp1030
I4
aI3
aI2
aI1
aI5
asI173
(lp1031
I4
aI2
aI3
aI5
aI1
asI174
(lp1032
I2
aI3
aI5
aI1
asa(dp1033
I200
(lp1034
I5
aI4
aI1
asI81
(lp1035
I2
aI1
asI2
(lp1036
I4
aI3
aI1
aI2
asI51
(lp1037
I4
aI3
asI105
(lp1038
I3
aI1
aI5
aI4
asa(dp1039
I136
(lp1040
I2
aI1
aI3
asI169
(lp1041
I3
aI4
aI5
aI1
aI2
asI170
(lp1042
I4
aI5
aI1
asI179
(lp1043
I2
aI3
aI5
asI52
(lp1044
I4
asI89
(lp1045
I3
aI5
aI1
asI95
(lp1046
I4
aI2
aI1
asa(dp1047
I193
(lp1048
I3
aI4
aI5
aI1
aI2
asI130
(lp1049
I2
asI123
(lp1050
I1
aI3
aI2
aI5
asI165
(lp1051
I3
aI1
aI2
aI5
aI4
asI48
(lp1052
I2
aI3
aI5
aI4
asI54
(lp1053
I5
aI2
aI1
aI3
asI56
(lp1054
I2
aI1
asI91
(lp1055
I4
aI1
asI190
(lp1056
I5
aI3
aI4
asa(dp1057
I131
(lp1058
I3
aI2
aI1
aI4
asI70
(lp1059
I5
aI3
aI4
aI1
asI102
(lp1060
I3
aI4
aI5
aI2
asI113
(lp1061
I5
aI1
aI4
aI3
asI145
(lp1062
I4
asI81
(lp1063
I5
aI2
aI4
aI1
asI115
(lp1064
I1
asI157
(lp1065
I4
aI2
aI3
aI1
aI5
asI158
(lp1066
I2
aI4
aI3
aI1
asa(dp1067
I68
(lp1068
I5
asI167
(lp1069
I3
aI1
aI5
aI2
asI136
(lp1070
I2
aI3
aI5
aI1
asI50
(lp1071
I3
aI2
aI5
aI4
aI1
asI179
(lp1072
I5
aI4
asI118
(lp1073
I5
aI2
aI1
aI3
asI55
(lp1074
I4
aI2
asI157
(lp1075
I2
aI1
asI126
(lp1076
I4
aI5
aI2
asa(dp1077
I129
(lp1078
I3
aI5
asI194
(lp1079
I3
asI166
(lp1080
I3
asI8
(lp1081
I3
aI1
aI2
asI45
(lp1082
I1
aI5
asI173
(lp1083
I2
aI1
aI4
aI5
asI112
(lp1084
I1
aI4
aI5
asI49
(lp1085
I5
aI1
aI4
asI82
(lp1086
I5
aI2
asI51
(lp1087
I1
aI4
aI3
aI5
aI2
asI22
(lp1088
I3
aI1
aI5
aI4
asI29
(lp1089
I3
aI2
aI1
aI4
asI94
(lp1090
I5
aI2
asa(dp1091
I172
(lp1092
I1
aI3
aI2
aI5
asI33
(lp1093
I1
aI3
aI5
aI4
asI101
(lp1094
I4
aI2
aI5
aI3
asI70
(lp1095
I4
asI135
(lp1096
I1
aI2
aI5
aI4
asI73
(lp1097
I4
aI5
aI2
asI42
(lp1098
I3
aI4
aI1
aI2
aI5
asI140
(lp1099
I4
aI3
aI1
aI5
aI2
asI15
(lp1100
I3
aI4
aI1
aI2
asI145
(lp1101
I1
asI51
(lp1102
I3
asI22
(lp1103
I4
asI105
(lp1104
I3
aI4
aI2
asI57
(lp1105
I3
aI4
aI5
aI1
aI2
asI159
(lp1106
I1
aI3
asI127
(lp1107
I2
aI3
aI1
asa(dp1108
I98
(lp1109
I3
aI2
aI1
aI5
aI4
asI176
(lp1110
I4
asI19
(lp1111
I3
aI1
aI5
aI2
aI4
asI87
(lp1112
I5
aI2
aI1
aI4
aI3
asI88
(lp1113
I2
aI1
aI5
aI4
aI3
asI89
(lp1114
I2
aI1
asI188
(lp1115
I1
aI5
aI3
asa(dp1116
I194
(lp1117
I5
aI2
asI3
(lp1118
I1
asI135
(lp1119
I2
asI45
(lp1120
I3
aI5
aI1
aI4
aI2
asI112
(lp1121
I5
aI4
aI3
asI145
(lp1122
I5
aI3
aI4
asI114
(lp1123
I3
aI1
aI4
aI2
asI182
(lp1124
I2
aI4
aI3
asI90
(lp1125
I3
aI4
aI2
asI61
(lp1126
I4
aI3
aI1
aI5
asI126
(lp1127
I1
aI2
aI5
aI3
aI4
asa.