(iParameters
Params
p1
(dp2
S'runs'
p3
I100
sS'init_vals'
p4
(lp5
(dp6
S'Ps'
p7
F20000
sS'Cb'
p8
F0.29999999999999999
sS'M'
F0.050000000000000003
sS'U'
F12000
sS'T'
F0.45000000000000001
sS'H'
F30000
sS'Cs'
p9
F0.10000000000000001
sS'Pl'
p10
F10000
sa(dp11
g7
F20000
sg8
F0.29999999999999999
sS'M'
F0.050000000000000003
sS'U'
F12000
sS'T'
F0.45000000000000001
sS'H'
F30000
sg9
F0.10000000000000001
sg10
F10000
sa(dp12
g7
F20000
sg8
F0.29999999999999999
sS'M'
F0.050000000000000003
sS'U'
F12000
sS'T'
F0.45000000000000001
sS'H'
F30000
sg9
F0.10000000000000001
sg10
F10000
sa(dp13
g7
F20000
sg8
F0.29999999999999999
sS'M'
F0.050000000000000003
sS'U'
F12000
sS'T'
F0.45000000000000001
sS'H'
F30000
sg9
F0.10000000000000001
sg10
F10000
sa(dp14
g7
F20000
sg8
F0.29999999999999999
sS'M'
F0.050000000000000003
sS'U'
F12000
sS'T'
F0.45000000000000001
sS'H'
F30000
sg9
F0.10000000000000001
sg10
F10000
sasS'paramforc'
p15
(dp16
S'epsilonsed_C'
p17
F0
sS'f2'
p18
(lp19
F1.5384615384615385
aF48.846153846153847
asS'hfreq'
p20
F3
sS'lnut_C'
p21
(lp22
F0.75
aF1
asS'f'
(lp23
F1.5384615384615385
aF48.846153846153847
asS'cmfreq'
p24
F20
sS'rnut_M'
p25
(lp26
F2
aF7
asS'hmax_cat'
p27
I5
sS'cmmax_sr'
p28
I5
sS'hdam_M'
p29
(lp30
F0
aF0.90000000000000002
asS'cmfreq2'
p31
F20
sS'dsed_C'
p32
(lp33
F0
aF0.0038461538461538464
asS'hdam_C'
p34
(lp35
F0.002
aF0.69999999999999996
asS'rsed_C'
p36
F0.69999999999999996
sS'hmin_cat'
p37
I1
sS'dfdam_C'
p38
(lp39
F7.6923076923076926e-05
aF0.00061538461538461541
asS'hmax_sr'
p40
I2
sS'cm_C'
p41
(lp42
F0.20000000000000001
aF0.59999999999999998
asS'drecsed_C'
p43
F0.40000000000000002
ssS'region'
p44
I0
sS'pmethod'
p45
I3
sS'update'
p46
I52
sS'years'
p47
I200
sS'paramconsumers'
p48
(dp49
S'lambda_U'
p50
F0.19999999999999996
sS'g_Pl'
p51
(lp52
F0.004807692307692308
aF0.014423076923076924
asS'kappa_U'
p53
(lp54
F1
aF10
asS'r_Pl'
p55
(lp56
F0.029999999999999999
aF0.089999999999999997
asS'd_Ps'
p57
(lp58
F0.0038461538461538464
aF0.038461538461538464
asS'psi_Pl'
p59
(lp60
F2
aF4
asS'd_U'
p61
(lp62
F0.0057692307692307687
aF0.019230769230769232
asS'd_H'
p63
(lp64
F0.0038461538461538464
aF0.038461538461538464
asS'd_Pl'
p65
(lp66
F0.0013461538461538463
aF0.017307692307692309
asS'r_Ps'
p67
(lp68
F0.035000000000000003
aF0.10000000000000001
asS'phi_Ps'
p69
(lp70
F0
aF10
asS'lambda_H'
p71
F0.80000000000000004
sS'g_Ps'
p72
(lp73
F0.019230769230769232
aF0.038461538461538464
asS'q_U'
p74
F1.9230769230769231e-08
ssS'seed'
p75
I0
sS'error_text'
p76
(lp77
sS'paramlist'
p78
(dp79
g50
F0.19999999999999996
sS'gamma_MT'
p80
(lp81
F0
aF0.90000000000000002
asg59
g60
sg61
g62
sg63
g64
sS'epsilon_C'
p82
(lp83
F0.050000000000000003
aF0.14999999999999999
asg67
g68
sS'd_C'
p84
(lp85
F0.00038461538461538462
aF0.0019230769230769232
asS'r_C'
p86
(lp87
F0.00076923076923076923
aF0.0038461538461538464
asS'beta_M'
p88
(lp89
F0.40000000000000002
aF0.90000000000000002
asS'zeta_T'
p90
(lp91
F0.038461538461538464
aF0.38461538461538464
asS'gamma_MC'
p92
(lp93
F0
aF0.90000000000000002
asg51
g52
sS'alpha_C'
p94
(lp95
F0
aF1
asg53
g54
sS'g_T'
p96
(lp97
F0.096153846153846159
aF0.28846153846153844
asg57
g58
sS'g_M'
p98
(lp99
F0.00096153846153846159
aF0.28846153846153844
asg74
F1.9230769230769231e-08
sg65
g66
sg71
F0.80000000000000004
sg55
g56
sg69
g70
sg72
g73
sS'r_M'
p100
(lp101
F0.00096153846153846159
aF0.0076923076923076927
assS'parambenthos'
p102
(dp103
g94
g95
sg96
g97
sg98
g99
sg82
g83
sg80
g81
sg84
g85
sg86
g87
sg88
g89
sg90
g91
sg92
g93
sg100
g101
ssS'paramscaled'
p104
(dp105
S'i_FPl'
p106
(lp107
F700
aF1000
asS'i_H'
p108
(lp109
F3000
aF500000
asS'mu_T'
p110
(lp111
F1.1538461538461537
aF1923.0769230769231
asS'i_FH'
p112
(lp113
F700
aF1000
asS'i_PlPs'
p114
(lp115
F7000
aF10000
asS'mu_M'
p116
(lp117
F1.1538461538461537
aF1923.0769230769231
asS'i_PH'
p118
(lp119
F7000
aF10000
asS'i_U'
p120
(lp121
F2000
aF3000000
asS'i_FPs'
p122
(lp123
F700
aF1000
asS'mu_E'
p124
(lp125
F1.1538461538461537
aF1923.0769230769231
assS'paramrec'
p126
(dp127
S'brec_P'
p128
F0.14999999999999999
sS'brec_U'
p129
F0.01
sS'l_U'
p130
(lp131
F13.461538461538462
aF17.307692307692307
asS'drec_C'
p132
(lp133
F0.0038461538461538464
aF0.013461538461538461
asS'l_Pl'
p134
(lp135
F13.461538461538462
aF17.307692307692307
asS'drec_F'
p136
F0.0038461538461538464
sS'l_C'
p137
(lp138
F38461538.461538464
aF115384615.38461539
asS'dlarv_Cb'
p139
(lp140
F0.59999999999999998
aF0.98999999999999999
asS'l_Ps'
p141
(lp142
F5.7692307692307692
aF9.615384615384615
asS'arec_C'
p143
F2.18e-10
sS'l_H'
p144
(lp145
F38.46153846153846
aF76.92307692307692
asS'brec_H'
p146
F0.080000000000000002
sS'drec_U'
p147
F0.0038461538461538464
ssS'equilib'
p148
I5
sS'init_errors'
p149
I0
sb.