(lp1
(dp2
I4
(lp3
I3
asI7
(lp4
I2
asI14
(lp5
I1
aI5
asI143
(lp6
I2
aI3
asI17
(lp7
I3
aI1
asI132
(lp8
I4
aI3
aI1
aI2
aI5
asI29
(lp9
I1
aI3
aI2
aI5
aI4
asI30
(lp10
I3
asI35
(lp11
I5
aI2
asI37
(lp12
I2
aI3
asI167
(lp13
I1
aI3
aI5
asI45
(lp14
I3
asI163
(lp15
I5
aI3
asI191
(lp16
I5
aI2
aI1
asI193
(lp17
I2
aI5
aI1
aI3
aI4
asI72
(lp18
I1
aI5
aI3
aI4
asI76
(lp19
I4
aI2
aI3
asI82
(lp20
I4
aI3
aI2
aI5
aI1
asI83
(lp21
I3
aI2
aI5
aI1
asI87
(lp22
I1
aI2
aI4
aI3
aI5
asI88
(lp23
I2
asI119
(lp24
I3
aI2
asa(dp25
I3
(lp26
I5
aI1
aI3
aI4
aI2
asI4
(lp27
I1
aI5
aI3
aI4
aI2
asI5
(lp28
I5
asI7
(lp29
I4
aI3
aI2
asI137
(lp30
I5
aI3
aI1
asI153
(lp31
I4
aI1
aI3
aI5
asI26
(lp32
I2
aI1
aI3
aI4
aI5
asI27
(lp33
I1
aI2
asI37
(lp34
I1
aI4
aI3
aI2
asI174
(lp35
I2
asI51
(lp36
I2
aI4
aI1
aI3
asI189
(lp37
I3
aI4
aI2
aI5
asI65
(lp38
I1
asI70
(lp39
I3
asI73
(lp40
I3
asI76
(lp41
I5
asI78
(lp42
I2
aI5
asI81
(lp43
I4
aI1
asI89
(lp44
I5
aI4
aI2
aI1
asI91
(lp45
I5
aI4
aI2
aI1
asI93
(lp46
I4
aI5
aI2
aI1
aI3
asI94
(lp47
I5
aI4
aI2
aI1
asI96
(lp48
I4
aI2
aI1
aI3
asI116
(lp49
I3
aI4
asI122
(lp50
I5
aI2
aI1
aI3
aI4
asa(dp51
I8
(lp52
I5
aI1
aI2
aI3
asI10
(lp53
I1
asI17
(lp54
I2
asI21
(lp55
I2
aI5
aI1
asI24
(lp56
I1
asI29
(lp57
I5
aI2
asI31
(lp58
I2
aI5
asI34
(lp59
I4
aI5
aI1
aI2
asI37
(lp60
I4
aI1
aI2
aI3
asI173
(lp61
I5
asI46
(lp62
I4
asI51
(lp63
I4
asI184
(lp64
I1
asI62
(lp65
I1
asI67
(lp66
I2
asI75
(lp67
I4
aI5
aI1
aI3
aI2
asI76
(lp68
I5
aI1
aI4
aI3
asI78
(lp69
I5
asI80
(lp70
I3
aI4
aI2
aI5
asI89
(lp71
I2
aI3
aI4
aI5
aI1
asI90
(lp72
I3
aI4
asI94
(lp73
I4
aI1
aI5
aI3
asI100
(lp74
I1
aI2
aI4
asI108
(lp75
I4
aI3
aI5
aI1
aI2
asI109
(lp76
I3
aI4
aI5
aI1
asa(dp77
I2
(lp78
I2
aI5
aI3
asI5
(lp79
I5
aI2
aI1
asI7
(lp80
I2
aI5
asI10
(lp81
I3
asI13
(lp82
I2
aI3
aI1
asI23
(lp83
I5
aI4
aI1
aI3
asI25
(lp84
I4
aI1
aI5
aI3
aI2
asI26
(lp85
I1
aI4
aI5
aI3
asI31
(lp86
I2
aI1
aI4
asI39
(lp87
I4
aI2
aI1
aI3
aI5
asI40
(lp88
I2
aI1
aI4
aI3
asI54
(lp89
I3
aI1
asI183
(lp90
I1
aI3
aI5
aI2
aI4
asI60
(lp91
I3
aI4
asI65
(lp92
I3
aI5
aI2
aI4
aI1
asI66
(lp93
I5
aI2
aI4
asI68
(lp94
I5
aI4
asI70
(lp95
I2
aI1
aI5
aI3
asI199
(lp96
I5
asI74
(lp97
I3
asI77
(lp98
I1
asI83
(lp99
I4
aI2
aI5
aI1
asI87
(lp100
I4
aI1
aI5
aI2
aI3
asI88
(lp101
I1
aI5
aI2
aI3
asI91
(lp102
I2
asI96
(lp103
I2
aI3
aI5
aI4
aI1
asI97
(lp104
I3
aI5
asI124
(lp105
I2
aI5
asa(dp106
I131
(lp107
I1
aI4
aI3
aI5
asI5
(lp108
I2
asI9
(lp109
I5
asI11
(lp110
I2
aI1
asI16
(lp111
I4
aI5
aI2
aI3
asI19
(lp112
I4
aI2
aI3
aI1
aI5
asI20
(lp113
I4
aI2
aI3
aI1
asI155
(lp114
I3
asI38
(lp115
I1
asI43
(lp116
I4
aI2
asI48
(lp117
I1
aI3
aI5
asI179
(lp118
I3
asI52
(lp119
I5
aI1
aI3
aI4
aI2
asI53
(lp120
I1
aI3
aI4
aI2
aI5
asI54
(lp121
I3
asI61
(lp122
I1
aI5
asI64
(lp123
I1
asI68
(lp124
I5
aI4
asI70
(lp125
I1
aI4
aI2
aI3
asI82
(lp126
I2
aI3
aI1
aI4
asI88
(lp127
I3
aI2
aI5
asI93
(lp128
I3
asI96
(lp129
I1
aI5
aI4
aI3
asI115
(lp130
I4
asa(dp131
I97
(lp132
I4
aI1
aI3
asI33
(lp133
I5
asI3
(lp134
I2
aI1
asI68
(lp135
I2
aI5
aI3
asI35
(lp136
I4
aI1
aI2
aI3
asI71
(lp137
I2
aI1
aI3
asI10
(lp138
I3
aI4
aI2
aI1
asI151
(lp139
I1
aI2
aI4
aI5
asI109
(lp140
I4
aI3
aI1
aI2
asI61
(lp141
I1
asI49
(lp142
I2
aI1
aI5
aI4
aI3
asI50
(lp143
I1
aI2
asI19
(lp144
I3
aI1
asI85
(lp145
I2
aI3
aI1
asI54
(lp146
I1
aI3
aI2
aI5
asI119
(lp147
I1
aI2
aI5
asI27
(lp148
I5
aI4
asI29
(lp149
I2
aI3
aI5
aI1
asI94
(lp150
I2
aI5
asa(dp151
I2
(lp152
I4
asI5
(lp153
I1
aI5
aI2
asI8
(lp154
I2
aI1
asI141
(lp155
I2
aI4
aI5
aI3
aI1
asI142
(lp156
I2
aI4
asI20
(lp157
I5
asI22
(lp158
I3
asI26
(lp159
I5
asI28
(lp160
I4
aI5
aI3
aI2
aI1
asI29
(lp161
I5
aI3
aI2
aI1
asI31
(lp162
I2
aI1
aI3
asI160
(lp163
I5
aI2
aI3
aI4
aI1
asI161
(lp164
I2
aI3
aI5
aI4
aI1
asI38
(lp165
I4
aI1
aI2
aI5
asI47
(lp166
I2
aI1
aI5
aI3
asI51
(lp167
I5
aI1
aI4
asI53
(lp168
I4
asI58
(lp169
I1
aI2
aI5
aI4
asI63
(lp170
I4
aI1
aI3
aI5
asI68
(lp171
I2
aI5
aI4
aI1
aI3
asI69
(lp172
I5
aI4
asI71
(lp173
I1
aI5
aI4
aI2
asI75
(lp174
I4
aI1
aI2
aI5
aI3
asI76
(lp175
I1
aI2
aI5
aI3
asI82
(lp176
I2
aI1
aI3
aI4
aI5
asI83
(lp177
I1
aI3
asI91
(lp178
I5
aI2
asI93
(lp179
I5
aI2
asI95
(lp180
I1
aI4
asI109
(lp181
I1
aI2
aI5
aI4
aI3
asI113
(lp182
I5
aI2
aI4
aI1
aI3
asI115
(lp183
I5
aI2
asa(dp184
I132
(lp185
I5
aI2
aI1
aI4
asI9
(lp186
I1
asI15
(lp187
I2
aI4
asI22
(lp188
I4
aI3
aI2
aI1
aI5
asI23
(lp189
I3
aI2
aI1
aI5
asI157
(lp190
I2
aI4
aI5
asI31
(lp191
I2
aI4
aI1
aI5
asI164
(lp192
I5
aI1
aI3
aI4
aI2
asI167
(lp193
I3
asI42
(lp194
I1
aI5
aI4
asI199
(lp195
I2
aI1
aI3
asI45
(lp196
I4
aI3
aI2
aI5
aI1
asI46
(lp197
I3
aI4
aI2
aI5
asI180
(lp198
I4
aI1
aI2
asI53
(lp199
I1
aI3
aI4
asI59
(lp200
I2
asI62
(lp201
I5
aI4
aI3
asI64
(lp202
I3
aI1
aI4
aI5
asI195
(lp203
I4
aI1
aI5
aI3
aI2
asI71
(lp204
I1
asI80
(lp205
I4
aI3
aI5
aI1
aI2
asI81
(lp206
I3
aI4
aI5
aI1
asI85
(lp207
I5
asI87
(lp208
I5
asI89
(lp209
I4
asI96
(lp210
I2
aI4
asI100
(lp211
I1
aI5
asI119
(lp212
I2
asa(dp213
I4
(lp214
I3
asI15
(lp215
I5
asI17
(lp216
I2
aI5
aI1
aI3
aI4
asI18
(lp217
I2
aI5
asI21
(lp218
I3
asI27
(lp219
I2
aI4
asI34
(lp220
I5
asI36
(lp221
I3
aI4
asI165
(lp222
I2
aI1
asI42
(lp223
I1
asI45
(lp224
I3
aI4
aI2
aI1
asI176
(lp225
I5
aI1
asI52
(lp226
I2
aI5
aI3
aI1
aI4
asI53
(lp227
I2
aI5
asI182
(lp228
I3
aI5
aI2
aI1
asI57
(lp229
I3
aI1
aI4
asI75
(lp230
I3
aI2
aI1
aI4
aI5
asI76
(lp231
I2
aI1
aI4
asI162
(lp232
I3
aI5
aI2
aI1
asI84
(lp233
I5
aI2
aI4
aI1
aI3
asI85
(lp234
I2
aI5
aI4
aI1
aI3
asI86
(lp235
I5
aI4
asI88
(lp236
I2
aI5
aI1
aI4
asI93
(lp237
I4
asI97
(lp238
I1
aI4
aI3
asI108
(lp239
I1
aI3
aI5
aI2
asI113
(lp240
I5
aI4
asI126
(lp241
I5
aI1
asa(dp242
I150
(lp243
I4
aI1
aI5
aI2
aI3
asI6
(lp244
I4
aI2
aI5
aI1
aI3
asI7
(lp245
I2
aI5
aI1
aI3
asI10
(lp246
I3
asI19
(lp247
I4
aI5
asI148
(lp248
I5
aI4
aI1
asI22
(lp249
I5
aI3
aI1
asI24
(lp250
I5
aI1
aI3
asI26
(lp251
I1
asI30
(lp252
I5
aI2
aI1
aI3
asI32
(lp253
I2
aI1
asI36
(lp254
I5
aI1
aI3
asI38
(lp255
I1
asI193
(lp256
I4
aI5
aI1
asI46
(lp257
I4
aI5
aI3
aI1
asI49
(lp258
I3
aI1
aI5
asI181
(lp259
I5
aI1
asI54
(lp260
I1
aI3
aI5
asI58
(lp261
I4
aI3
aI2
aI5
asI65
(lp262
I5
aI3
aI1
aI2
aI4
asI66
(lp263
I5
aI3
aI1
aI2
aI4
asI67
(lp264
I3
aI1
aI2
aI4
aI5
asI68
(lp265
I1
aI2
aI3
asI79
(lp266
I3
aI2
aI4
aI5
asI84
(lp267
I1
aI5
aI4
aI3
aI2
asI85
(lp268
I5
asI87
(lp269
I3
aI1
aI5
aI2
asI164
(lp270
I1
asI93
(lp271
I3
asI108
(lp272
I3
asI111
(lp273
I5
aI2
aI1
asI113
(lp274
I1
aI4
asa(dp275
I32
(lp276
I5
aI4
aI2
asI34
(lp277
I4
aI2
aI5
aI3
asI59
(lp278
I1
aI5
aI4
aI3
aI2
asI4
(lp279
I4
asI102
(lp280
I3
aI5
aI4
asI7
(lp281
I2
asI41
(lp282
I2
aI3
aI1
aI5
asI74
(lp283
I2
asI15
(lp284
I3
aI4
asI80
(lp285
I3
aI4
aI2
asI91
(lp286
I1
asI79
(lp287
I3
aI4
aI2
aI5
aI1
asI52
(lp288
I3
aI4
aI5
aI1
asI94
(lp289
I2
aI3
aI4
asI56
(lp290
I3
aI5
aI1
asI153
(lp291
I2
asI26
(lp292
I2
aI1
aI5
aI3
aI4
asI27
(lp293
I2
aI1
asI60
(lp294
I5
asI62
(lp295
I4
asa(dp296
I7
(lp297
I2
asI137
(lp298
I2
asI12
(lp299
I5
aI4
aI2
asI14
(lp300
I4
aI2
aI1
aI5
asI21
(lp301
I5
aI2
asI150
(lp302
I2
aI1
aI3
asI23
(lp303
I4
aI2
asI30
(lp304
I2
asI33
(lp305
I2
aI1
aI4
aI3
aI5
asI34
(lp306
I1
aI4
asI164
(lp307
I1
aI5
asI41
(lp308
I5
aI3
aI2
aI4
aI1
asI42
(lp309
I3
aI2
aI4
aI5
aI1
asI43
(lp310
I2
aI4
aI5
asI174
(lp311
I4
aI3
aI2
aI5
asI49
(lp312
I1
aI4
aI2
asI180
(lp313
I4
aI2
aI1
aI3
aI5
asI56
(lp314
I1
aI5
aI3
aI4
aI2
asI57
(lp315
I5
asI59
(lp316
I4
aI5
aI2
asI62
(lp317
I5
aI4
aI2
aI1
aI3
asI63
(lp318
I4
aI2
aI1
aI5
aI3
asI64
(lp319
I2
aI1
aI5
aI4
asI196
(lp320
I4
aI1
aI3
asI70
(lp321
I1
aI2
aI3
aI4
asI78
(lp322
I1
aI5
aI4
aI2
asI81
(lp323
I5
aI2
aI1
aI4
asI83
(lp324
I5
aI2
asI85
(lp325
I2
aI1
aI4
aI3
aI5
asI86
(lp326
I2
aI1
asI97
(lp327
I5
aI4
aI2
aI1
asI99
(lp328
I2
aI5
aI4
aI1
asI104
(lp329
I2
aI1
aI4
aI5
aI3
asI112
(lp330
I1
aI5
aI2
asI115
(lp331
I2
asa(dp332
I4
(lp333
I3
aI2
aI5
aI4
asI10
(lp334
I5
aI4
aI1
aI2
asI12
(lp335
I5
aI1
aI4
aI2
asI14
(lp336
I4
asI24
(lp337
I5
aI3
aI2
aI4
asI26
(lp338
I3
aI2
aI5
aI4
aI1
asI27
(lp339
I2
aI5
aI3
asI154
(lp340
I3
aI4
aI5
aI1
asI31
(lp341
I3
aI4
aI5
asI160
(lp342
I1
aI4
aI3
asI38
(lp343
I5
aI3
aI2
aI1
asI40
(lp344
I3
aI2
aI5
asI45
(lp345
I5
aI1
asI47
(lp346
I1
asI177
(lp347
I2
asI53
(lp348
I1
aI3
asI185
(lp349
I5
asI58
(lp350
I2
asI61
(lp351
I5
aI3
aI1
aI4
asI63
(lp352
I1
aI5
aI4
asI66
(lp353
I4
aI5
aI2
aI1
aI3
asI67
(lp354
I5
aI2
aI1
aI4
asI69
(lp355
I5
aI1
asI71
(lp356
I2
asI75
(lp357
I5
aI4
asI77
(lp358
I4
aI2
aI5
aI3
aI1
asI78
(lp359
I2
aI5
aI4
aI3
asI81
(lp360
I4
aI3
aI1
aI5
aI2
asI82
(lp361
I3
aI1
aI5
aI2
asI86
(lp362
I2
aI3
aI4
asI99
(lp363
I2
aI3
aI1
aI5
aI4
asa(dp364
I96
(lp365
I1
aI3
aI5
asI100
(lp366
I1
aI3
asI165
(lp367
I5
aI3
asI6
(lp368
I3
aI1
asI199
(lp369
I1
aI5
aI2
asI60
(lp370
I1
aI3
aI2
asI42
(lp371
I1
aI2
aI4
asI139
(lp372
I1
aI5
aI2
aI3
asI93
(lp373
I5
aI3
aI1
aI2
aI4
asI48
(lp374
I5
aI4
aI1
asI81
(lp375
I5
aI4
aI1
aI3
asI50
(lp376
I4
aI5
aI1
aI2
asI83
(lp377
I1
aI5
aI3
aI2
asI20
(lp378
I1
aI4
aI5
aI2
asI53
(lp379
I1
aI2
aI4
aI5
asI87
(lp380
I5
aI1
aI3
asI89
(lp381
I1
asI28
(lp382
I4
aI1
asI74
(lp383
I2
aI1
aI4
asI94
(lp384
I5
aI3
aI1
aI2
aI4
asI95
(lp385
I3
aI1
aI5
aI2
aI4
asa(dp386
I6
(lp387
I2
aI5
aI1
aI3
asI9
(lp388
I1
aI3
aI2
aI4
aI5
asI10
(lp389
I1
asI17
(lp390
I3
aI1
asI23
(lp391
I2
aI4
aI1
aI5
aI3
asI24
(lp392
I2
aI4
asI153
(lp393
I4
aI5
aI1
aI3
asI29
(lp394
I4
aI2
aI3
aI1
aI5
asI30
(lp395
I4
aI2
aI3
aI1
asI40
(lp396
I5
aI3
asI42
(lp397
I2
aI3
aI4
asI47
(lp398
I5
aI3
aI4
asI49
(lp399
I4
aI1
aI3
asI137
(lp400
I5
aI2
asI184
(lp401
I2
aI3
aI5
asI57
(lp402
I3
aI5
aI2
aI1
asI60
(lp403
I1
aI4
asI193
(lp404
I4
aI5
asI73
(lp405
I2
asI77
(lp406
I2
aI1
asI86
(lp407
I4
aI1
aI3
aI5
aI2
asI87
(lp408
I1
aI3
aI5
aI4
asI93
(lp409
I4
aI1
aI2
asI145
(lp410
I1
aI2
asI108
(lp411
I1
aI3
asI168
(lp412
I5
aI1
aI2
aI3
aI4
asI116
(lp413
I3
asa(dp414
I193
(lp415
I4
aI2
aI1
asI68
(lp416
I1
aI5
aI3
asI37
(lp417
I2
aI1
asI166
(lp418
I2
aI5
asI71
(lp419
I3
asI145
(lp420
I2
aI3
aI5
asI10
(lp421
I3
asI135
(lp422
I2
asI45
(lp423
I2
aI4
aI5
aI1
asI77
(lp424
I4
aI3
asI13
(lp425
I5
aI3
aI1
aI4
asI49
(lp426
I1
asI18
(lp427
I4
aI3
aI2
aI1
asI82
(lp428
I1
aI3
asI53
(lp429
I3
aI4
aI1
aI2
aI5
asI54
(lp430
I4
aI1
aI2
asI152
(lp431
I5
aI2
asI89
(lp432
I3
aI2
aI4
asI15
(lp433
I1
aI5
aI4
asI126
(lp434
I2
aI3
aI5
aI1
aI4
asa(dp435
I51
(lp436
I4
aI2
aI5
asI2
(lp437
I2
aI4
aI3
asI34
(lp438
I5
aI1
aI4
asI36
(lp439
I1
asI7
(lp440
I1
aI2
aI3
asI41
(lp441
I4
asI79
(lp442
I2
aI3
aI5
aI4
asI67
(lp443
I1
aI2
aI4
asI13
(lp444
I2
asI78
(lp445
I4
aI2
aI3
aI5
aI1
asI77
(lp446
I5
aI4
aI2
aI3
aI1
asI19
(lp447
I4
aI2
aI1
aI5
asI85
(lp448
I3
aI4
aI2
aI5
asI73
(lp449
I3
aI4
aI5
asI57
(lp450
I5
aI1
aI2
asI26
(lp451
I5
asI59
(lp452
I2
asI28
(lp453
I3
aI4
asI90
(lp454
I2
aI3
aI4
aI5
asI185
(lp455
I5
aI1
aI2
aI3
asa(dp456
I6
(lp457
I1
aI3
aI4
asI138
(lp458
I3
aI1
aI2
asI12
(lp459
I3
aI4
aI5
asI18
(lp460
I3
aI1
asI152
(lp461
I5
asI27
(lp462
I3
aI4
asI32
(lp463
I4
aI3
aI5
asI163
(lp464
I4
asI38
(lp465
I4
aI2
aI5
aI3
aI1
asI39
(lp466
I4
aI2
aI5
aI3
asI43
(lp467
I5
aI1
aI3
asI45
(lp468
I3
asI49
(lp469
I2
aI3
aI1
aI4
asI67
(lp470
I5
aI4
aI2
asI69
(lp471
I4
aI2
aI5
aI1
asI75
(lp472
I1
aI5
aI4
aI2
asI78
(lp473
I5
asI80
(lp474
I5
aI1
aI2
aI4
asI82
(lp475
I2
asI89
(lp476
I4
aI5
aI3
asI92
(lp477
I3
aI4
aI2
aI5
aI1
asI93
(lp478
I4
aI2
aI3
asI112
(lp479
I3
aI5
asI115
(lp480
I4
aI1
aI2
aI3
asa(dp481
I132
(lp482
I5
aI4
aI2
asI6
(lp483
I3
aI2
aI5
aI4
aI1
asI7
(lp484
I2
aI5
aI3
asI10
(lp485
I3
aI5
asI139
(lp486
I4
aI3
asI13
(lp487
I3
aI4
aI1
asI21
(lp488
I3
asI24
(lp489
I2
aI1
asI29
(lp490
I3
aI2
aI4
aI5
aI1
asI30
(lp491
I2
aI4
aI5
asI34
(lp492
I3
aI2
aI5
aI4
asI39
(lp493
I4
aI5
aI3
asI169
(lp494
I4
asI43
(lp495
I4
aI5
aI2
asI48
(lp496
I2
aI3
asI158
(lp497
I5
aI4
aI1
asI56
(lp498
I2
aI5
aI1
aI3
asI59
(lp499
I1
aI3
asI63
(lp500
I1
aI3
asI197
(lp501
I5
aI3
aI4
aI1
aI2
asI198
(lp502
I3
aI4
aI1
aI2
aI5
asI199
(lp503
I4
aI1
aI2
asI78
(lp504
I1
aI5
aI2
aI3
aI4
asI79
(lp505
I5
asI81
(lp506
I2
aI1
aI5
aI3
aI4
asI82
(lp507
I1
aI5
asI85
(lp508
I1
aI2
asI107
(lp509
I2
aI4
asI119
(lp510
I5
aI4
aI2
asa(dp511
I96
(lp512
I4
aI5
aI1
asI3
(lp513
I5
aI2
aI4
aI3
asI5
(lp514
I4
aI3
asI70
(lp515
I3
aI4
aI5
asI40
(lp516
I1
aI2
aI4
aI3
aI5
asI41
(lp517
I2
asI10
(lp518
I3
aI5
aI2
aI1
asI119
(lp519
I3
asI14
(lp520
I3
aI2
aI1
aI5
aI4
asI15
(lp521
I2
aI1
aI5
asI114
(lp522
I3
aI5
aI2
aI1
asI99
(lp523
I5
asI74
(lp524
I2
aI4
asI53
(lp525
I4
aI1
aI2
aI3
aI5
asI54
(lp526
I1
aI2
aI3
aI5
asI23
(lp527
I4
aI1
aI2
aI3
aI5
asI24
(lp528
I1
aI2
aI3
aI5
asI139
(lp529
I1
aI4
asI59
(lp530
I3
aI5
asI29
(lp531
I4
asI62
(lp532
I1
aI4
aI2
aI5
asa(dp533
I7
(lp534
I2
aI5
asI11
(lp535
I2
aI5
aI1
aI4
aI3
asI12
(lp536
I5
aI1
asI14
(lp537
I5
aI1
aI4
aI3
aI2
asI15
(lp538
I1
aI4
aI5
aI3
aI2
asI16
(lp539
I4
asI20
(lp540
I5
aI3
aI1
aI4
asI149
(lp541
I1
aI4
aI5
aI2
aI3
asI22
(lp542
I3
aI5
aI1
asI25
(lp543
I5
asI27
(lp544
I1
aI4
aI2
asI158
(lp545
I1
aI3
aI5
aI4
asI38
(lp546
I4
aI2
asI46
(lp547
I2
aI3
aI5
asI179
(lp548
I5
asI52
(lp549
I3
aI4
aI1
aI5
aI2
asI53
(lp550
I3
aI4
aI1
asI58
(lp551
I2
asI191
(lp552
I3
aI5
aI2
aI4
aI1
asI192
(lp553
I5
aI2
aI4
asI194
(lp554
I2
aI5
aI4
aI1
aI3
asI67
(lp555
I1
aI2
aI5
asI197
(lp556
I4
aI1
aI5
aI3
asI72
(lp557
I3
asI75
(lp558
I5
aI4
aI3
asI77
(lp559
I3
aI1
aI4
aI2
asI86
(lp560
I5
aI1
aI4
aI3
asI88
(lp561
I5
asI90
(lp562
I4
aI5
aI1
aI3
asI93
(lp563
I1
asI98
(lp564
I4
aI1
aI3
aI5
asI122
(lp565
I5
aI4
aI1
aI2
aI3
asa(dp566
I6
(lp567
I3
asI135
(lp568
I1
aI2
asI141
(lp569
I1
aI3
aI2
aI4
aI5
asI17
(lp570
I1
asI26
(lp571
I4
aI3
aI2
aI5
asI34
(lp572
I4
aI5
aI2
aI1
asI164
(lp573
I3
aI2
asI37
(lp574
I5
aI2
asI39
(lp575
I5
aI1
asI41
(lp576
I1
asI54
(lp577
I5
asI56
(lp578
I1
aI3
aI4
aI5
asI63
(lp579
I1
aI3
aI4
aI5
asI69
(lp580
I1
aI5
aI3
aI2
aI4
asI70
(lp581
I5
asI72
(lp582
I3
asI78
(lp583
I5
asI80
(lp584
I4
aI5
asI83
(lp585
I1
aI4
aI2
aI5
aI3
asI84
(lp586
I1
asI89
(lp587
I5
aI3
aI4
aI2
asI91
(lp588
I4
aI2
aI1
asI98
(lp589
I1
asI120
(lp590
I4
aI2
aI1
asa(dp591
I3
(lp592
I4
aI1
aI3
asI132
(lp593
I5
aI4
aI2
aI1
aI3
asI13
(lp594
I5
aI2
aI4
aI1
asI15
(lp595
I4
aI5
asI18
(lp596
I1
asI23
(lp597
I5
aI4
asI25
(lp598
I4
aI5
aI1
aI3
aI2
asI26
(lp599
I5
aI1
aI4
aI3
asI28
(lp600
I5
asI30
(lp601
I4
aI5
aI1
aI3
asI34
(lp602
I5
asI36
(lp603
I1
aI4
aI3
asI167
(lp604
I5
aI3
aI2
aI1
asI64
(lp605
I5
asI193
(lp606
I4
aI3
asI66
(lp607
I2
asI197
(lp608
I4
aI2
aI3
aI5
aI1
asI198
(lp609
I2
aI4
aI3
aI5
asI72
(lp610
I3
asI76
(lp611
I2
aI1
aI3
aI5
aI4
asI77
(lp612
I1
aI3
asI81
(lp613
I2
aI5
aI3
aI4
aI1
asI82
(lp614
I5
aI3
asI84
(lp615
I5
aI4
aI2
asI86
(lp616
I4
aI2
aI1
aI5
aI3
asI87
(lp617
I4
aI2
aI1
aI5
asI95
(lp618
I5
asI97
(lp619
I4
aI5
aI3
aI1
aI2
asI98
(lp620
I5
aI3
aI4
aI1
asI106
(lp621
I1
aI4
aI5
aI3
asI146
(lp622
I2
aI1
asI113
(lp623
I3
aI4
aI5
aI1
aI2
asI122
(lp624
I3
aI1
aI4
aI2
aI5
asa(dp625
I33
(lp626
I3
aI5
aI1
aI4
aI2
asI34
(lp627
I5
aI1
aI3
asI99
(lp628
I5
aI1
aI2
aI4
asI36
(lp629
I5
asI38
(lp630
I1
aI5
aI3
asI41
(lp631
I1
asI11
(lp632
I2
aI3
aI1
asI44
(lp633
I5
aI3
aI1
asI66
(lp634
I2
aI1
aI3
aI4
asI46
(lp635
I1
aI3
aI4
asI16
(lp636
I4
aI2
aI1
asI108
(lp637
I3
aI5
asI23
(lp638
I1
aI3
aI2
asI159
(lp639
I1
aI5
asI156
(lp640
I2
aI5
asI29
(lp641
I5
aI4
aI3
asI62
(lp642
I4
aI5
asI31
(lp643
I5
aI3
aI1
aI4
asa(dp644
I136
(lp645
I2
aI5
aI3
aI4
aI1
asI139
(lp646
I2
aI5
asI143
(lp647
I5
aI2
aI4
asI174
(lp648
I1
asI151
(lp649
I3
aI4
aI1
asI40
(lp650
I5
aI3
asI42
(lp651
I1
aI2
aI5
asI46
(lp652
I4
asI177
(lp653
I2
aI5
aI3
aI1
asI54
(lp654
I1
aI3
aI2
aI5
asI23
(lp655
I2
aI1
aI3
asI59
(lp656
I2
aI5
aI4
aI3
aI1
asI60
(lp657
I5
aI4
asI62
(lp658
I3
aI5
aI2
aI4
asI65
(lp659
I2
aI4
aI3
aI1
aI5
asI66
(lp660
I4
aI2
asI86
(lp661
I5
aI4
aI1
aI2
asI88
(lp662
I4
aI1
aI5
aI2
asI92
(lp663
I1
aI4
asI97
(lp664
I5
aI2
asI99
(lp665
I4
aI3
asI113
(lp666
I5
aI4
aI3
asI115
(lp667
I3
aI2
aI1
aI5
asI190
(lp668
I1
aI5
asa(dp669
I135
(lp670
I3
asI11
(lp671
I3
aI5
aI1
asI14
(lp672
I3
asI18
(lp673
I5
aI3
asI20
(lp674
I3
aI4
aI5
asI25
(lp675
I1
aI5
aI4
asI28
(lp676
I4
aI1
aI3
aI5
aI2
asI29
(lp677
I1
aI4
aI3
aI5
asI37
(lp678
I5
aI3
aI2
asI39
(lp679
I2
aI1
aI5
asI44
(lp680
I1
aI2
aI4
aI5
asI50
(lp681
I4
aI3
asI56
(lp682
I4
asI195
(lp683
I4
asI68
(lp684
I4
aI5
aI2
aI1
asI71
(lp685
I1
aI5
asI74
(lp686
I5
asI76
(lp687
I1
aI4
aI5
asI80
(lp688
I3
aI1
aI5
aI2
aI4
asI81
(lp689
I3
aI1
aI5
asI86
(lp690
I2
aI5
asI89
(lp691
I4
aI5
aI3
aI1
aI2
asI90
(lp692
I4
aI5
aI3
aI1
asI93
(lp693
I3
aI1
aI4
aI2
asI104
(lp694
I2
aI1
aI3
asI117
(lp695
I1
aI2
aI5
aI4
aI3
asI118
(lp696
I2
asI148
(lp697
I2
aI4
aI1
aI3
asa(dp698
I5
(lp699
I4
aI5
aI3
asI8
(lp700
I5
aI4
aI3
asI10
(lp701
I3
aI1
aI4
aI5
asI18
(lp702
I3
aI5
aI2
aI4
asI21
(lp703
I4
aI5
asI150
(lp704
I2
aI4
aI5
aI3
asI24
(lp705
I4
aI5
aI3
aI1
aI2
asI25
(lp706
I5
aI3
aI1
aI4
asI154
(lp707
I5
aI3
asI27
(lp708
I3
aI5
aI1
asI30
(lp709
I3
aI1
aI4
aI5
aI2
asI31
(lp710
I1
aI4
aI5
asI133
(lp711
I4
aI3
aI5
asI35
(lp712
I5
aI3
asI37
(lp713
I2
aI5
aI3
asI40
(lp714
I5
aI3
aI1
asI42
(lp715
I5
aI1
aI4
asI44
(lp716
I1
asI55
(lp717
I3
aI1
aI4
asI185
(lp718
I5
aI4
aI2
aI3
aI1
asI186
(lp719
I4
aI2
aI5
aI3
aI1
asI64
(lp720
I2
aI5
aI1
aI3
aI4
asI65
(lp721
I5
aI2
asI67
(lp722
I2
aI1
aI3
aI4
aI5
asI68
(lp723
I2
aI1
asI75
(lp724
I4
aI5
asI78
(lp725
I4
aI3
asI87
(lp726
I2
asI91
(lp727
I1
aI3
asI119
(lp728
I1
aI2
aI4
aI3
aI5
asa(dp729
I97
(lp730
I2
asI39
(lp731
I4
aI3
aI2
aI1
asI72
(lp732
I2
aI3
aI5
aI4
asI76
(lp733
I2
aI1
aI5
aI3
asI14
(lp734
I4
aI2
aI3
asI80
(lp735
I3
asI20
(lp736
I2
aI5
aI1
aI3
aI4
asI21
(lp737
I2
aI5
asI119
(lp738
I2
aI5
aI4
aI1
aI3
asI24
(lp739
I1
asI84
(lp740
I2
aI1
asI186
(lp741
I1
aI5
aI3
asI62
(lp742
I4
aI1
aI2
aI5
aI3
asI63
(lp743
I1
aI2
aI4
aI5
asa(dp744
I7
(lp745
I3
aI2
aI5
aI4
aI1
asI8
(lp746
I2
aI5
aI3
asI11
(lp747
I5
aI3
aI4
aI2
aI1
asI12
(lp748
I3
aI4
aI2
aI1
aI5
asI13
(lp749
I4
aI2
aI3
asI28
(lp750
I5
aI2
aI3
aI1
asI30
(lp751
I2
aI3
aI1
aI4
aI5
asI31
(lp752
I3
aI1
asI161
(lp753
I3
aI1
aI4
asI50
(lp754
I4
aI5
asI179
(lp755
I1
asI54
(lp756
I3
aI4
aI1
aI2
asI62
(lp757
I2
aI4
aI3
aI5
aI1
asI63
(lp758
I4
aI3
asI70
(lp759
I2
aI4
asI74
(lp760
I3
aI5
aI4
aI2
asI77
(lp761
I4
aI3
aI5
aI2
aI1
asI78
(lp762
I3
aI5
aI2
aI4
asI81
(lp763
I4
aI1
asI86
(lp764
I1
aI4
asI91
(lp765
I1
aI5
aI3
asI94
(lp766
I5
aI1
aI2
asI96
(lp767
I1
asI104
(lp768
I2
aI4
aI5
aI3
asI111
(lp769
I3
asI121
(lp770
I5
aI4
aI3
asI124
(lp771
I4
aI5
aI3
aI1
aI2
asa(dp772
I66
(lp773
I4
aI3
aI1
aI5
aI2
asI67
(lp774
I4
aI3
aI1
aI5
asI132
(lp775
I3
asI7
(lp776
I1
aI4
asI72
(lp777
I5
asI74
(lp778
I3
aI2
aI1
aI4
aI5
asI75
(lp779
I2
aI1
aI4
asI175
(lp780
I4
aI2
aI5
asI18
(lp781
I1
aI2
aI5
aI3
asI51
(lp782
I4
asI180
(lp783
I1
asI85
(lp784
I1
aI4
aI2
asI22
(lp785
I3
aI4
aI1
aI2
aI5
asI23
(lp786
I4
aI1
aI2
asI152
(lp787
I4
aI3
aI2
aI1
asI123
(lp788
I5
aI2
aI4
asI60
(lp789
I4
aI2
aI1
asI30
(lp790
I4
aI1
aI3
asa(dp791
I171
(lp792
I3
asI4
(lp793
I3
aI1
aI5
aI4
asI8
(lp794
I1
aI3
aI5
aI2
asI14
(lp795
I5
aI3
asI16
(lp796
I3
aI4
aI5
aI1
aI2
asI17
(lp797
I3
aI4
aI5
asI21
(lp798
I3
asI151
(lp799
I2
aI3
aI4
asI32
(lp800
I5
aI4
aI3
asI34
(lp801
I3
aI1
aI2
aI4
asI43
(lp802
I4
aI1
asI174
(lp803
I2
aI5
aI3
asI47
(lp804
I2
asI51
(lp805
I4
aI3
aI5
aI2
asI57
(lp806
I4
aI2
aI5
aI1
aI3
asI58
(lp807
I2
aI5
aI4
aI1
asI188
(lp808
I3
aI4
aI1
aI2
asI61
(lp809
I1
aI4
aI5
aI3
asI65
(lp810
I5
aI3
aI4
aI2
asI67
(lp811
I5
aI4
aI2
asI69
(lp812
I4
aI2
aI5
aI3
aI1
asI70
(lp813
I2
aI5
aI3
aI4
asI73
(lp814
I2
aI5
aI4
asI76
(lp815
I1
aI5
aI4
aI2
asI79
(lp816
I2
aI3
aI4
aI1
asI87
(lp817
I4
aI5
aI2
aI1
asI91
(lp818
I5
aI4
aI2
aI1
aI3
asI92
(lp819
I4
aI5
aI2
aI1
aI3
asI93
(lp820
I4
aI5
aI2
aI1
asI97
(lp821
I5
aI1
asI99
(lp822
I1
aI2
aI4
aI3
aI5
asa(dp823
I32
(lp824
I4
aI2
asI48
(lp825
I2
aI3
aI4
aI1
asI164
(lp826
I4
aI3
aI1
asI7
(lp827
I2
aI5
aI4
asI183
(lp828
I4
aI1
aI3
aI5
asI41
(lp829
I1
asI10
(lp830
I4
aI3
aI5
aI2
asI75
(lp831
I2
aI4
aI1
asI112
(lp832
I2
aI5
asI16
(lp833
I3
aI4
asI146
(lp834
I2
aI3
aI1
aI4
asI23
(lp835
I3
aI1
aI4
asI89
(lp836
I3
aI1
aI5
aI4
asI122
(lp837
I1
aI5
aI4
aI3
aI2
asI123
(lp838
I1
asI93
(lp839
I4
aI2
aI3
aI5
asI190
(lp840
I5
aI2
aI4
aI3
asI31
(lp841
I2
aI4
aI3
aI5
aI1
asa(dp842
I6
(lp843
I4
aI1
aI5
asI12
(lp844
I2
aI1
aI3
aI4
asI25
(lp845
I3
aI1
asI158
(lp846
I1
aI2
aI5
aI4
aI3
asI31
(lp847
I2
asI36
(lp848
I4
aI2
aI1
aI3
aI5
asI37
(lp849
I4
aI2
aI1
aI3
asI170
(lp850
I5
aI3
aI2
aI4
asI172
(lp851
I2
aI5
aI3
asI46
(lp852
I2
asI175
(lp853
I5
aI3
aI4
aI1
aI2
asI49
(lp854
I3
aI2
aI4
aI5
aI1
asI50
(lp855
I2
aI4
aI5
asI30
(lp856
I1
aI2
aI5
aI4
aI3
asI54
(lp857
I4
aI3
aI2
aI1
asI183
(lp858
I5
aI3
aI2
aI1
asI190
(lp859
I2
aI4
asI65
(lp860
I5
aI2
aI1
asI67
(lp861
I2
aI1
asI74
(lp862
I5
aI4
asI76
(lp863
I2
aI4
aI1
aI3
asI87
(lp864
I4
aI3
aI2
aI5
aI1
asI88
(lp865
I3
aI4
aI2
aI5
asI94
(lp866
I4
aI1
aI5
asI98
(lp867
I2
aI5
asa(dp868
I5
(lp869
I3
aI2
aI4
aI1
asI139
(lp870
I1
asI144
(lp871
I3
aI1
aI4
asI20
(lp872
I4
asI157
(lp873
I4
aI1
aI5
asI30
(lp874
I2
asI161
(lp875
I1
aI4
asI38
(lp876
I4
aI5
aI3
aI1
asI41
(lp877
I4
aI3
aI1
aI2
aI5
asI42
(lp878
I3
aI1
aI4
aI2
asI175
(lp879
I5
asI61
(lp880
I1
aI4
aI5
aI3
aI2
asI62
(lp881
I4
asI65
(lp882
I5
aI3
aI4
aI1
asI67
(lp883
I4
aI1
aI5
asI72
(lp884
I3
aI5
aI1
asI75
(lp885
I3
asI85
(lp886
I5
aI2
aI1
aI3
aI4
asI86
(lp887
I2
aI1
aI5
aI3
aI4
asI87
(lp888
I1
aI5
asI90
(lp889
I2
aI3
aI5
aI1
aI4
asI91
(lp890
I3
aI5
asI94
(lp891
I3
aI1
asI112
(lp892
I4
aI3
aI1
aI2
asI121
(lp893
I4
aI2
aI1
aI5
aI3
asa(dp894
I128
(lp895
I4
aI2
asI33
(lp896
I2
aI5
aI3
aI4
asI36
(lp897
I3
aI5
aI2
aI4
aI1
asI37
(lp898
I3
aI5
aI2
asI70
(lp899
I3
aI4
asI40
(lp900
I4
aI3
asI9
(lp901
I5
aI4
aI2
aI3
asI95
(lp902
I2
aI1
aI3
asI11
(lp903
I4
aI2
aI3
aI1
aI5
asI12
(lp904
I2
aI4
aI3
aI1
asI111
(lp905
I1
aI4
aI5
aI3
asI49
(lp906
I1
aI3
aI2
aI4
asI183
(lp907
I3
aI1
asI89
(lp908
I1
aI4
aI5
aI3
asI88
(lp909
I4
aI1
aI5
aI3
aI2
asI25
(lp910
I2
aI5
aI4
asI136
(lp911
I2
aI4
aI3
aI5
aI1
asI59
(lp912
I3
aI1
aI4
aI2
asI28
(lp913
I3
aI2
aI5
aI4
asI93
(lp914
I5
aI3
aI2
asI69
(lp915
I2
aI3
aI4
aI1
aI5
asa(dp916
I3
(lp917
I5
aI4
aI1
asI5
(lp918
I4
aI1
aI2
aI5
aI3
asI6
(lp919
I1
aI4
aI2
aI5
asI12
(lp920
I1
aI4
asI17
(lp921
I2
asI146
(lp922
I2
aI3
aI5
aI1
asI23
(lp923
I5
asI25
(lp924
I3
aI2
aI1
asI32
(lp925
I3
aI4
aI1
aI2
asI44
(lp926
I2
aI1
aI5
aI3
asI48
(lp927
I5
asI50
(lp928
I4
aI3
aI5
asI54
(lp929
I1
aI2
aI5
aI4
aI3
asI55
(lp930
I2
asI58
(lp931
I2
aI1
aI4
aI3
asI70
(lp932
I3
aI4
aI2
aI5
asI80
(lp933
I2
aI1
aI3
asI85
(lp934
I4
aI5
aI1
asI88
(lp935
I2
asI93
(lp936
I4
aI2
asI97
(lp937
I4
aI3
aI1
asI112
(lp938
I5
aI3
aI1
aI2
asa(dp939
I33
(lp940
I4
aI2
asI66
(lp941
I3
asI54
(lp942
I2
asI8
(lp943
I1
aI4
asI41
(lp944
I1
aI3
aI2
aI4
asI144
(lp945
I5
aI4
aI3
asI75
(lp946
I4
aI1
aI5
asI79
(lp947
I1
aI2
aI4
asI16
(lp948
I3
aI5
asI40
(lp949
I4
aI1
aI3
aI2
aI5
asI20
(lp950
I5
aI2
aI3
aI1
asI22
(lp951
I2
aI3
asI87
(lp952
I3
aI5
aI1
aI2
aI4
asI88
(lp953
I5
aI3
aI1
asI90
(lp954
I1
aI3
aI2
asI186
(lp955
I2
aI5
aI1
aI4
aI3
asI31
(lp956
I5
aI2
aI4
aI1
asa(dp957
I6
(lp958
I4
aI3
asI14
(lp959
I1
aI3
aI4
aI5
aI2
asI15
(lp960
I3
asI20
(lp961
I5
aI3
aI2
asI22
(lp962
I5
aI2
aI3
asI24
(lp963
I3
aI5
asI27
(lp964
I4
aI5
aI1
asI31
(lp965
I3
asI162
(lp966
I5
aI2
aI3
asI35
(lp967
I3
aI2
asI42
(lp968
I5
asI44
(lp969
I1
aI2
aI4
aI3
asI180
(lp970
I2
aI5
aI3
aI1
asI55
(lp971
I2
aI5
asI58
(lp972
I5
aI1
asI60
(lp973
I1
aI3
aI4
aI2
aI5
asI61
(lp974
I3
asI68
(lp975
I3
aI1
aI5
aI2
aI4
asI69
(lp976
I1
aI3
aI5
asI74
(lp977
I2
aI5
aI3
asI77
(lp978
I4
aI5
aI1
asI80
(lp979
I1
aI2
aI4
aI3
aI5
asI81
(lp980
I2
asI89
(lp981
I5
aI2
aI3
asI91
(lp982
I2
aI3
aI5
aI1
aI4
asI92
(lp983
I3
aI5
asI96
(lp984
I1
aI4
aI3
asI107
(lp985
I3
asa(dp986
I139
(lp987
I5
aI1
aI3
aI2
aI4
asI12
(lp988
I1
asI15
(lp989
I4
aI5
asI18
(lp990
I4
aI2
aI5
aI3
asI23
(lp991
I2
aI4
aI5
aI3
asI28
(lp992
I4
aI2
aI3
aI5
aI1
asI29
(lp993
I4
aI2
aI3
aI5
asI38
(lp994
I5
aI3
aI4
aI1
aI2
asI39
(lp995
I5
aI3
aI4
aI1
aI2
asI40
(lp996
I3
aI4
aI1
aI5
aI2
asI41
(lp997
I4
aI1
aI3
asI47
(lp998
I3
aI4
aI2
aI5
aI1
asI48
(lp999
I3
aI4
aI2
asI181
(lp1000
I5
aI2
asI183
(lp1001
I3
aI2
asI61
(lp1002
I4
aI5
aI2
asI64
(lp1003
I5
aI3
asI66
(lp1004
I5
aI1
aI2
asI68
(lp1005
I2
asI71
(lp1006
I2
aI1
aI4
asI78
(lp1007
I2
asI89
(lp1008
I2
aI1
aI4
asI106
(lp1009
I5
asa(dp1010
I6
(lp1011
I1
aI4
aI2
asI15
(lp1012
I1
aI4
aI2
aI3
asI23
(lp1013
I1
aI4
asI153
(lp1014
I2
aI4
aI5
aI1
aI3
asI157
(lp1015
I5
asI34
(lp1016
I5
asI36
(lp1017
I2
aI4
aI3
aI5
asI43
(lp1018
I2
aI3
aI5
aI4
asI49
(lp1019
I3
aI4
asI178
(lp1020
I2
asI58
(lp1021
I5
aI3
aI1
asI60
(lp1022
I1
aI5
aI3
asI63
(lp1023
I5
asI65
(lp1024
I2
aI1
aI3
asI199
(lp1025
I4
aI5
asI77
(lp1026
I2
asI84
(lp1027
I5
aI2
aI3
asI86
(lp1028
I5
aI3
asI88
(lp1029
I3
aI5
aI4
asI93
(lp1030
I2
aI5
aI4
aI3
asI96
(lp1031
I4
aI5
aI3
aI1
asI99
(lp1032
I4
aI1
aI2
asI113
(lp1033
I1
aI3
aI2
aI4
aI5
asI127
(lp1034
I3
aI5
asa(dp1035
I5
(lp1036
I1
aI2
asI23
(lp1037
I1
aI5
aI2
aI3
aI4
asI24
(lp1038
I5
asI26
(lp1039
I5
aI3
asI28
(lp1040
I3
aI1
aI2
aI5
aI4
asI29
(lp1041
I1
aI2
aI5
asI34
(lp1042
I1
aI2
aI5
aI4
aI3
asI35
(lp1043
I2
asI38
(lp1044
I4
aI3
aI5
aI1
aI2
asI39
(lp1045
I3
aI5
aI1
aI4
asI42
(lp1046
I5
asI44
(lp1047
I3
asI175
(lp1048
I3
aI4
asI56
(lp1049
I5
asI58
(lp1050
I2
aI1
asI64
(lp1051
I4
aI3
aI2
asI70
(lp1052
I4
aI1
aI2
aI5
aI3
asI71
(lp1053
I1
aI2
aI5
aI4
asI75
(lp1054
I4
asI81
(lp1055
I1
aI2
aI5
asI86
(lp1056
I5
aI1
aI4
asI88
(lp1057
I4
asI186
(lp1058
I5
asI97
(lp1059
I3
aI2
aI5
aI4
aI1
asI98
(lp1060
I2
aI3
aI5
asI102
(lp1061
I2
aI3
aI4
aI5
aI1
asI107
(lp1062
I5
aI3
aI1
aI4
asI109
(lp1063
I3
aI1
aI4
asa(dp1064
I7
(lp1065
I2
aI4
aI1
aI3
aI5
asI8
(lp1066
I4
aI2
asI19
(lp1067
I4
aI5
aI2
aI3
asI23
(lp1068
I2
aI5
aI3
aI1
asI26
(lp1069
I3
aI1
aI2
aI5
aI4
asI27
(lp1070
I1
aI3
aI2
asI32
(lp1071
I4
aI5
aI1
aI2
asI162
(lp1072
I1
aI3
aI5
asI35
(lp1073
I1
aI4
aI5
aI2
asI39
(lp1074
I4
aI1
aI5
aI2
asI46
(lp1075
I5
aI1
asI48
(lp1076
I4
asI59
(lp1077
I2
aI1
aI4
asI66
(lp1078
I2
aI5
aI1
aI3
asI69
(lp1079
I1
asI78
(lp1080
I4
aI2
aI5
asI83
(lp1081
I2
asI87
(lp1082
I5
aI3
asI89
(lp1083
I4
aI5
aI3
asI93
(lp1084
I5
aI2
aI4
asI95
(lp1085
I5
aI2
aI4
aI1
aI3
asI96
(lp1086
I2
aI4
aI1
aI3
aI5
asI97
(lp1087
I2
aI4
asI106
(lp1088
I3
asI114
(lp1089
I5
asI116
(lp1090
I3
aI1
asa(dp1091
I6
(lp1092
I5
asI8
(lp1093
I1
aI3
asI144
(lp1094
I2
aI5
aI4
aI3
asI18
(lp1095
I2
aI1
aI5
aI3
aI4
asI19
(lp1096
I1
aI5
asI22
(lp1097
I3
aI2
asI156
(lp1098
I2
asI28
(lp1099
I5
aI4
aI3
aI1
asI30
(lp1100
I3
aI1
aI5
aI4
asI35
(lp1101
I1
aI3
aI4
aI5
aI2
asI36
(lp1102
I3
asI41
(lp1103
I1
aI4
aI2
aI5
asI47
(lp1104
I5
aI4
aI1
aI3
aI2
asI48
(lp1105
I5
aI4
aI1
aI3
aI2
asI49
(lp1106
I5
aI4
aI1
aI3
aI2
asI50
(lp1107
I4
aI5
aI1
aI3
aI2
asI51
(lp1108
I5
aI1
aI3
aI4
asI53
(lp1109
I5
aI1
aI3
aI4
aI2
asI54
(lp1110
I1
aI3
aI5
aI4
aI2
asI55
(lp1111
I1
asI187
(lp1112
I3
aI5
asI60
(lp1113
I5
aI3
aI1
aI2
asI62
(lp1114
I3
aI1
aI2
aI5
aI4
asI63
(lp1115
I1
aI2
aI3
asI182
(lp1116
I2
aI5
aI3
aI1
aI4
asI71
(lp1117
I2
aI4
aI3
aI5
asI76
(lp1118
I1
aI3
asI82
(lp1119
I4
aI5
aI3
aI2
asI85
(lp1120
I4
aI3
aI5
aI2
asI90
(lp1121
I2
aI4
aI3
aI5
asI99
(lp1122
I5
aI2
aI1
asI101
(lp1123
I2
aI1
asI113
(lp1124
I1
aI3
aI5
asI118
(lp1125
I3
asa(dp1126
I3
(lp1127
I5
aI3
asI5
(lp1128
I1
aI2
aI3
asI15
(lp1129
I5
aI2
asI17
(lp1130
I2
aI3
aI5
aI4
aI1
asI18
(lp1131
I3
aI2
asI22
(lp1132
I5
aI4
asI24
(lp1133
I5
aI4
aI2
aI3
asI26
(lp1134
I4
aI5
aI2
aI3
aI1
asI27
(lp1135
I5
aI2
aI3
aI4
asI29
(lp1136
I5
aI2
aI3
aI4
aI1
asI30
(lp1137
I2
aI3
aI4
aI1
aI5
asI31
(lp1138
I3
aI4
asI37
(lp1139
I3
aI5
aI2
aI1
aI4
asI38
(lp1140
I5
aI2
aI3
asI40
(lp1141
I2
aI3
aI5
aI1
aI4
asI41
(lp1142
I3
aI5
asI170
(lp1143
I2
aI3
asI44
(lp1144
I3
asI56
(lp1145
I4
aI2
aI1
aI5
aI3
asI57
(lp1146
I2
aI1
aI4
aI5
asI192
(lp1147
I2
aI4
aI1
aI3
asI65
(lp1148
I3
aI4
aI1
aI2
asI73
(lp1149
I3
asI85
(lp1150
I3
aI5
asI89
(lp1151
I5
aI4
asI152
(lp1152
I5
aI2
aI4
asI91
(lp1153
I1
aI3
aI4
aI5
asI98
(lp1154
I5
asI105
(lp1155
I1
aI5
aI3
asa(dp1156
I24
(lp1157
I5
aI2
aI3
aI4
aI1
asI25
(lp1158
I2
aI5
aI3
aI4
aI1
asI26
(lp1159
I2
aI5
asI155
(lp1160
I4
aI1
aI3
asI29
(lp1161
I3
aI4
aI2
aI5
aI1
asI30
(lp1162
I4
aI2
aI5
asI34
(lp1163
I4
aI5
asI38
(lp1164
I1
asI182
(lp1165
I5
aI4
aI3
aI1
aI2
asI183
(lp1166
I4
aI3
aI1
aI2
aI5
asI184
(lp1167
I3
aI1
aI2
aI5
asI59
(lp1168
I4
asI62
(lp1169
I4
aI2
aI3
aI5
aI1
asI191
(lp1170
I4
aI2
asI68
(lp1171
I1
aI5
asI54
(lp1172
I3
aI2
aI4
asI72
(lp1173
I1
asI80
(lp1174
I4
aI2
asI88
(lp1175
I3
aI5
aI2
asI91
(lp1176
I4
aI3
asI107
(lp1177
I3
aI2
aI4
aI5
asI63
(lp1178
I2
aI3
aI5
aI1
asa(dp1179
I6
(lp1180
I4
aI1
aI3
asI13
(lp1181
I1
aI3
asI17
(lp1182
I5
aI3
aI1
aI4
aI2
asI18
(lp1183
I3
aI1
aI4
aI2
aI5
asI19
(lp1184
I3
aI1
aI4
asI149
(lp1185
I4
aI5
asI29
(lp1186
I1
aI3
asI39
(lp1187
I4
aI2
asI44
(lp1188
I4
asI179
(lp1189
I2
aI4
aI3
aI5
asI52
(lp1190
I2
aI3
asI58
(lp1191
I2
aI3
aI5
aI1
aI4
asI59
(lp1192
I3
aI5
asI62
(lp1193
I3
aI2
aI1
asI82
(lp1194
I4
aI5
aI2
aI1
aI3
asI83
(lp1195
I5
aI2
aI1
aI4
asI85
(lp1196
I2
aI1
aI4
aI5
aI3
asI86
(lp1197
I1
aI4
asI91
(lp1198
I2
aI3
aI5
aI1
aI4
asI92
(lp1199
I2
aI3
asI98
(lp1200
I3
asI103
(lp1201
I5
aI1
asI113
(lp1202
I4
aI3
aI2
aI5
asI127
(lp1203
I2
asa(dp1204
I4
(lp1205
I5
aI3
aI1
aI4
aI2
asI5
(lp1206
I5
aI3
aI1
aI4
aI2
asI6
(lp1207
I3
aI5
aI1
aI4
aI2
asI7
(lp1208
I3
aI5
aI1
asI10
(lp1209
I1
aI4
aI5
aI3
aI2
asI11
(lp1210
I4
asI14
(lp1211
I4
aI5
aI1
aI3
aI2
asI15
(lp1212
I5
aI1
aI3
aI2
asI17
(lp1213
I1
aI3
aI2
aI4
aI5
asI18
(lp1214
I3
asI156
(lp1215
I1
asI30
(lp1216
I1
aI5
aI4
aI3
aI2
asI31
(lp1217
I1
asI35
(lp1218
I4
aI1
aI5
aI3
asI164
(lp1219
I1
asI39
(lp1220
I3
aI4
aI5
aI1
aI2
asI40
(lp1221
I4
aI5
aI1
asI43
(lp1222
I4
aI1
aI2
aI3
asI55
(lp1223
I5
aI3
asI57
(lp1224
I2
aI4
aI1
asI186
(lp1225
I1
aI3
aI5
asI67
(lp1226
I1
aI4
asI71
(lp1227
I5
aI4
asI73
(lp1228
I4
aI3
aI1
aI2
asI185
(lp1229
I3
aI1
aI5
aI4
aI2
asI90
(lp1230
I1
aI5
aI3
asI143
(lp1231
I1
aI4
aI3
aI2
aI5
asI93
(lp1232
I4
aI5
aI3
asI96
(lp1233
I5
aI3
aI2
aI1
aI4
asI97
(lp1234
I3
aI2
aI1
aI4
aI5
asI98
(lp1235
I2
aI1
aI3
asI107
(lp1236
I4
aI2
aI5
aI3
asa(dp1237
I4
(lp1238
I3
aI5
aI2
aI1
aI4
asI5
(lp1239
I5
aI2
aI1
asI7
(lp1240
I1
aI3
asI12
(lp1241
I2
aI5
aI4
aI1
aI3
asI13
(lp1242
I5
aI2
asI15
(lp1243
I5
aI4
asI17
(lp1244
I4
aI1
aI2
aI5
aI3
asI18
(lp1245
I1
aI2
aI4
aI5
asI148
(lp1246
I3
aI5
aI4
asI24
(lp1247
I4
aI2
aI5
asI28
(lp1248
I1
aI5
aI3
aI2
asI158
(lp1249
I2
aI1
aI4
aI3
asI31
(lp1250
I2
aI5
aI4
asI34
(lp1251
I1
aI2
aI3
aI5
asI41
(lp1252
I3
aI2
asI45
(lp1253
I4
aI3
aI2
asI176
(lp1254
I3
asI66
(lp1255
I4
aI5
asI69
(lp1256
I4
aI1
aI2
aI3
asI80
(lp1257
I1
aI5
asI83
(lp1258
I1
aI3
aI2
aI4
asI93
(lp1259
I5
aI4
aI2
asI95
(lp1260
I2
aI5
aI1
aI3
asI98
(lp1261
I3
asa(dp1262
I51
(lp1263
I3
aI5
aI1
aI4
asI66
(lp1264
I1
aI2
asI102
(lp1265
I2
asI97
(lp1266
I2
aI4
asI80
(lp1267
I1
aI2
asI9
(lp1268
I2
aI4
asI16
(lp1269
I3
aI5
aI2
aI4
asI19
(lp1270
I2
aI3
asI85
(lp1271
I2
aI4
aI1
aI3
asI54
(lp1272
I5
asI41
(lp1273
I4
asI56
(lp1274
I4
aI2
aI5
aI1
aI3
asI57
(lp1275
I4
aI2
aI5
aI1
asI27
(lp1276
I3
aI5
aI2
aI4
asI125
(lp1277
I1
aI4
aI5
aI2
aI3
asI126
(lp1278
I4
asI31
(lp1279
I3
aI4
asa(dp1280
I96
(lp1281
I1
aI5
aI2
aI4
aI3
asI97
(lp1282
I5
asI130
(lp1283
I4
aI1
aI2
aI3
aI5
asI35
(lp1284
I2
aI3
aI4
aI1
asI4
(lp1285
I1
aI2
aI5
aI3
aI4
asI5
(lp1286
I2
asI188
(lp1287
I1
asI9
(lp1288
I3
asI77
(lp1289
I2
aI4
aI1
aI5
asI17
(lp1290
I2
aI3
asI156
(lp1291
I4
aI2
aI1
aI3
aI5
asI99
(lp1292
I2
aI4
asI53
(lp1293
I2
aI3
asI22
(lp1294
I1
aI5
aI3
asI121
(lp1295
I3
aI4
aI2
aI5
asI88
(lp1296
I4
aI3
asI25
(lp1297
I3
aI1
aI2
asI179
(lp1298
I1
aI2
aI4
aI3
aI5
asI92
(lp1299
I2
aI5
asI157
(lp1300
I2
aI1
aI4
aI3
asa(dp1301
I2
(lp1302
I1
aI3
aI4
asI132
(lp1303
I1
aI3
aI5
aI4
asI8
(lp1304
I5
aI3
aI2
aI1
asI10
(lp1305
I5
aI3
aI2
aI1
aI4
asI11
(lp1306
I3
aI5
aI2
aI1
aI4
asI12
(lp1307
I3
aI5
aI2
asI15
(lp1308
I3
aI5
asI18
(lp1309
I3
aI1
aI4
aI5
aI2
asI19
(lp1310
I1
aI4
aI5
asI23
(lp1311
I2
aI3
asI32
(lp1312
I2
aI3
aI1
aI5
aI4
asI33
(lp1313
I3
aI1
asI37
(lp1314
I4
aI3
asI41
(lp1315
I3
aI2
aI5
aI1
asI45
(lp1316
I5
asI47
(lp1317
I3
aI2
asI57
(lp1318
I4
asI151
(lp1319
I3
aI2
aI4
aI1
asI196
(lp1320
I3
aI4
aI1
aI2
asI73
(lp1321
I4
asI76
(lp1322
I4
aI2
asI81
(lp1323
I5
asI83
(lp1324
I1
asI86
(lp1325
I2
aI3
aI5
aI4
aI1
asI87
(lp1326
I2
aI3
asI93
(lp1327
I1
aI5
aI4
aI3
asI96
(lp1328
I4
asI108
(lp1329
I1
aI3
aI5
aI2
aI4
asI109
(lp1330
I1
asI115
(lp1331
I4
aI5
asa(dp1332
I179
(lp1333
I1
aI3
aI2
aI4
asI136
(lp1334
I3
aI1
aI5
aI2
asI14
(lp1335
I4
aI3
aI2
aI1
aI5
asI15
(lp1336
I3
aI2
aI4
aI1
asI148
(lp1337
I5
aI2
aI1
aI4
aI3
asI22
(lp1338
I5
aI3
aI4
aI2
asI24
(lp1339
I3
aI4
aI5
aI2
aI1
asI25
(lp1340
I4
aI5
aI3
asI29
(lp1341
I4
aI2
aI5
asI34
(lp1342
I1
aI3
aI5
aI2
asI38
(lp1343
I5
aI2
asI40
(lp1344
I3
aI5
asI43
(lp1345
I5
aI2
aI3
asI45
(lp1346
I3
aI4
asI51
(lp1347
I5
aI3
aI1
asI53
(lp1348
I1
aI5
aI3
asI56
(lp1349
I3
aI2
aI1
aI5
aI4
asI57
(lp1350
I2
aI3
aI1
asI64
(lp1351
I3
aI1
aI4
aI2
aI5
asI65
(lp1352
I1
aI4
aI2
asI72
(lp1353
I4
aI2
aI5
aI3
asI77
(lp1354
I3
aI2
aI5
aI4
asI82
(lp1355
I4
aI3
aI2
asI143
(lp1356
I2
aI1
asI92
(lp1357
I3
aI5
aI1
aI2
asI95
(lp1358
I3
asI98
(lp1359
I4
aI1
asI111
(lp1360
I3
aI4
asa(dp1361
I64
(lp1362
I2
aI4
aI5
aI3
asI68
(lp1363
I2
aI3
aI5
asI132
(lp1364
I2
aI5
aI4
asI36
(lp1365
I2
aI1
asI197
(lp1366
I4
asI72
(lp1367
I4
asI184
(lp1368
I4
aI5
aI1
aI3
aI2
asI140
(lp1369
I3
aI4
asI78
(lp1370
I2
asI47
(lp1371
I5
aI2
asI49
(lp1372
I2
aI1
aI3
aI5
aI4
asI50
(lp1373
I2
aI1
asI147
(lp1374
I2
aI3
asI85
(lp1375
I1
aI2
aI4
asI22
(lp1376
I5
aI2
aI3
aI1
asI56
(lp1377
I1
asI24
(lp1378
I3
aI1
asI4
(lp1379
I3
asI15
(lp1380
I3
aI2
asI92
(lp1381
I1
aI4
aI2
aI3
asa(dp1382
I2
(lp1383
I5
aI2
aI1
aI4
asI131
(lp1384
I2
asI4
(lp1385
I2
aI1
aI4
aI3
aI5
asI5
(lp1386
I2
aI1
asI17
(lp1387
I5
aI4
aI2
aI1
aI3
asI18
(lp1388
I4
aI2
aI5
aI1
aI3
asI19
(lp1389
I2
aI5
aI1
aI3
asI150
(lp1390
I2
aI3
aI4
aI5
aI1
asI23
(lp1391
I2
aI5
aI1
aI3
aI4
asI24
(lp1392
I2
aI5
asI27
(lp1393
I2
asI30
(lp1394
I4
aI5
aI1
asI33
(lp1395
I4
asI155
(lp1396
I3
aI2
aI4
asI164
(lp1397
I5
aI4
asI42
(lp1398
I2
aI4
aI3
aI5
asI54
(lp1399
I4
aI5
aI3
aI1
asI57
(lp1400
I4
aI5
aI3
aI1
aI2
asI58
(lp1401
I5
aI4
aI3
aI1
asI60
(lp1402
I3
aI1
aI5
aI2
asI64
(lp1403
I5
aI1
asI66
(lp1404
I3
asI72
(lp1405
I1
aI3
aI2
asI81
(lp1406
I4
aI1
asI90
(lp1407
I2
asI99
(lp1408
I5
aI2
asa(dp1409
I3
(lp1410
I1
asI10
(lp1411
I3
asI144
(lp1412
I2
aI4
asI21
(lp1413
I4
aI5
aI2
aI1
aI3
asI22
(lp1414
I5
aI2
aI1
aI4
asI24
(lp1415
I5
aI1
asI26
(lp1416
I2
asI31
(lp1417
I2
asI38
(lp1418
I2
aI4
aI1
aI5
asI171
(lp1419
I1
asI45
(lp1420
I2
aI3
aI4
aI5
aI1
asI46
(lp1421
I3
aI4
asI51
(lp1422
I1
asI54
(lp1423
I3
aI2
asI65
(lp1424
I3
asI68
(lp1425
I3
aI1
aI4
aI2
aI5
asI69
(lp1426
I1
aI4
aI2
asI77
(lp1427
I3
aI5
aI4
aI1
aI2
asI78
(lp1428
I3
aI5
aI4
asI81
(lp1429
I3
aI1
aI4
aI5
asI88
(lp1430
I3
aI4
asI93
(lp1431
I1
aI5
asI98
(lp1432
I3
asI124
(lp1433
I3
aI4
asa(dp1434
I128
(lp1435
I3
aI2
aI1
asI3
(lp1436
I4
aI2
aI5
aI3
aI1
asI4
(lp1437
I2
aI4
aI5
aI3
asI9
(lp1438
I4
aI3
aI1
aI5
aI2
asI10
(lp1439
I3
aI1
aI4
aI5
asI15
(lp1440
I2
aI3
aI1
aI5
asI20
(lp1441
I2
aI5
asI23
(lp1442
I3
aI5
aI2
aI4
asI26
(lp1443
I2
aI3
asI161
(lp1444
I5
aI1
aI4
aI2
aI3
asI162
(lp1445
I5
aI1
aI4
aI2
aI3
asI38
(lp1446
I4
aI1
aI2
asI171
(lp1447
I1
aI4
asI48
(lp1448
I1
aI3
aI5
aI2
asI179
(lp1449
I3
aI5
aI4
asI52
(lp1450
I5
asI54
(lp1451
I2
aI1
asI176
(lp1452
I2
aI5
aI3
aI4
aI1
asI58
(lp1453
I3
aI2
aI5
asI63
(lp1454
I4
aI1
asI69
(lp1455
I1
aI5
aI2
asI199
(lp1456
I3
aI5
aI2
aI1
asI72
(lp1457
I4
aI5
asI75
(lp1458
I2
aI5
aI3
aI1
aI4
asI76
(lp1459
I5
aI3
asI78
(lp1460
I3
aI5
aI1
asI82
(lp1461
I3
aI5
aI1
asI86
(lp1462
I5
asI88
(lp1463
I2
asI182
(lp1464
I4
aI1
aI2
aI5
asI98
(lp1465
I3
aI1
aI5
asI107
(lp1466
I4
aI1
asI113
(lp1467
I3
aI5
aI2
aI4
asI116
(lp1468
I4
aI2
asI148
(lp1469
I2
aI4
aI1
aI3
asa(dp1470
I4
(lp1471
I3
asI9
(lp1472
I4
aI1
aI5
aI2
asI13
(lp1473
I1
aI2
aI4
aI3
aI5
asI14
(lp1474
I2
asI21
(lp1475
I5
aI2
aI3
aI4
aI1
asI22
(lp1476
I5
aI2
aI3
aI4
aI1
asI23
(lp1477
I5
aI2
aI3
aI4
aI1
asI24
(lp1478
I5
aI2
aI3
aI4
aI1
asI25
(lp1479
I2
aI3
aI4
aI5
aI1
asI26
(lp1480
I3
aI4
asI31
(lp1481
I3
asI37
(lp1482
I3
aI5
aI1
aI4
aI2
asI38
(lp1483
I5
aI1
aI4
asI40
(lp1484
I4
asI172
(lp1485
I2
aI4
aI3
aI1
aI5
asI173
(lp1486
I4
aI3
asI179
(lp1487
I2
aI3
aI1
aI5
asI186
(lp1488
I3
aI4
aI2
asI60
(lp1489
I5
aI4
aI3
aI2
asI62
(lp1490
I5
aI3
aI4
aI2
asI64
(lp1491
I5
aI4
aI2
asI66
(lp1492
I4
aI2
aI5
aI3
asI195
(lp1493
I2
aI3
aI1
aI4
aI5
asI70
(lp1494
I3
aI5
asI74
(lp1495
I4
asI77
(lp1496
I2
aI3
asI83
(lp1497
I2
asI90
(lp1498
I1
aI3
aI2
asI95
(lp1499
I5
aI1
aI2
aI3
asI97
(lp1500
I1
asI117
(lp1501
I3
aI1
aI5
aI2
aI4
asI118
(lp1502
I3
aI1
aI5
asI122
(lp1503
I1
aI2
aI3
asa(dp1504
I4
(lp1505
I4
aI2
aI1
asI16
(lp1506
I2
aI1
aI4
asI145
(lp1507
I3
asI25
(lp1508
I1
asI153
(lp1509
I3
aI1
aI5
aI2
asI29
(lp1510
I4
aI1
aI3
aI2
aI5
asI30
(lp1511
I1
aI3
aI2
aI4
asI197
(lp1512
I5
aI4
aI1
aI3
asI41
(lp1513
I2
asI50
(lp1514
I2
aI5
aI3
aI1
aI4
asI51
(lp1515
I5
aI3
asI53
(lp1516
I1
aI2
aI3
asI61
(lp1517
I4
asI190
(lp1518
I2
aI3
asI65
(lp1519
I2
asI69
(lp1520
I1
aI5
aI4
aI2
aI3
asI70
(lp1521
I5
asI72
(lp1522
I2
aI3
aI1
aI5
asI78
(lp1523
I2
asI83
(lp1524
I2
aI1
aI5
asI87
(lp1525
I3
aI4
asI106
(lp1526
I1
aI3
asI117
(lp1527
I3
asa(dp1528
I128
(lp1529
I1
aI4
aI5
aI2
asI65
(lp1530
I2
aI5
asI69
(lp1531
I5
asI71
(lp1532
I5
aI4
asI73
(lp1533
I3
aI2
aI4
aI1
asI193
(lp1534
I1
asI199
(lp1535
I1
aI5
aI3
aI2
asI191
(lp1536
I5
aI1
aI4
aI2
asI157
(lp1537
I5
aI1
asI179
(lp1538
I5
aI3
aI4
asI22
(lp1539
I2
aI1
asI56
(lp1540
I1
aI3
aI4
aI5
aI2
asI57
(lp1541
I1
asI91
(lp1542
I5
aI3
aI2
aI1
asI93
(lp1543
I5
aI3
aI2
asI190
(lp1544
I4
aI5
aI1
aI2
aI3
asI95
(lp1545
I2
aI1
aI5
asa(dp1546
I4
(lp1547
I1
aI5
asI8
(lp1548
I2
asI144
(lp1549
I4
aI1
aI3
asI21
(lp1550
I3
aI2
aI4
aI1
asI153
(lp1551
I5
aI3
asI32
(lp1552
I4
aI2
asI42
(lp1553
I3
aI2
aI5
aI4
asI46
(lp1554
I5
aI4
aI1
asI175
(lp1555
I1
aI2
aI4
asI48
(lp1556
I1
aI3
aI2
aI4
asI54
(lp1557
I5
aI3
aI1
aI4
asI56
(lp1558
I1
aI4
aI5
asI60
(lp1559
I5
asI62
(lp1560
I2
aI5
aI3
asI65
(lp1561
I3
aI1
aI4
asI72
(lp1562
I5
aI3
aI2
aI1
aI4
asI73
(lp1563
I3
aI2
aI1
aI5
aI4
asI74
(lp1564
I2
aI1
aI5
asI78
(lp1565
I1
aI3
aI2
aI5
asI86
(lp1566
I2
asI114
(lp1567
I5
aI3
aI1
asI119
(lp1568
I3
aI4
aI1
aI5
asa(dp1569
I33
(lp1570
I3
aI4
aI2
aI5
asI68
(lp1571
I5
aI4
aI2
aI3
asI70
(lp1572
I2
aI3
aI1
aI5
asI38
(lp1573
I4
aI5
aI3
aI1
aI2
asI39
(lp1574
I5
aI3
aI1
aI2
asI136
(lp1575
I3
aI2
asI41
(lp1576
I1
aI2
aI5
asI81
(lp1577
I3
aI2
asI79
(lp1578
I5
aI2
aI3
asI144
(lp1579
I4
aI1
aI3
aI2
aI5
asI49
(lp1580
I5
aI1
aI4
aI2
aI3
asI50
(lp1581
I1
aI5
aI4
aI2
aI3
asI51
(lp1582
I5
asI53
(lp1583
I4
aI5
aI1
aI2
asI56
(lp1584
I5
asI58
(lp1585
I5
aI2
asI111
(lp1586
I1
aI5
aI2
aI3
asI60
(lp1587
I3
aI5
asI63
(lp1588
I4
aI3
asa(dp1589
I8
(lp1590
I3
asI155
(lp1591
I5
aI1
aI2
asI157
(lp1592
I1
asI162
(lp1593
I2
aI1
asI35
(lp1594
I3
aI5
aI1
aI2
aI4
asI36
(lp1595
I5
aI1
aI3
asI198
(lp1596
I3
aI4
aI5
asI38
(lp1597
I3
asI43
(lp1598
I2
aI5
aI3
aI4
asI46
(lp1599
I2
aI3
aI4
aI1
aI5
asI47
(lp1600
I3
aI4
asI27
(lp1601
I2
aI4
aI1
asI63
(lp1602
I5
aI3
aI1
aI4
asI65
(lp1603
I3
aI1
aI4
aI5
aI2
asI66
(lp1604
I1
aI4
aI5
asI196
(lp1605
I5
aI3
asI70
(lp1606
I1
aI3
aI2
aI5
asI75
(lp1607
I4
aI3
asI79
(lp1608
I2
aI5
aI3
aI4
aI1
asI80
(lp1609
I5
aI2
asI82
(lp1610
I3
aI5
asI85
(lp1611
I4
aI2
asI94
(lp1612
I2
aI3
aI4
aI1
aI5
asI95
(lp1613
I3
aI4
asI125
(lp1614
I4
asa(dp1615
I2
(lp1616
I2
aI3
aI5
aI4
asI6
(lp1617
I4
aI3
asI142
(lp1618
I4
aI5
aI1
asI16
(lp1619
I3
asI145
(lp1620
I1
aI5
aI3
aI2
aI4
asI20
(lp1621
I1
aI5
aI3
aI4
asI23
(lp1622
I4
aI5
aI3
asI27
(lp1623
I3
aI2
aI5
aI1
asI31
(lp1624
I2
aI3
aI5
aI1
aI4
asI32
(lp1625
I2
aI3
asI37
(lp1626
I5
aI2
aI1
asI39
(lp1627
I5
aI1
asI41
(lp1628
I2
asI51
(lp1629
I1
asI54
(lp1630
I1
asI57
(lp1631
I1
aI2
asI186
(lp1632
I4
asI191
(lp1633
I5
aI2
aI4
aI3
asI81
(lp1634
I5
aI2
aI4
aI3
aI1
asI82
(lp1635
I2
aI4
aI3
aI5
aI1
asI83
(lp1636
I4
aI3
asI90
(lp1637
I3
aI1
aI5
aI2
aI4
asI91
(lp1638
I1
aI5
aI2
asI94
(lp1639
I3
aI5
asI165
(lp1640
I5
aI2
aI4
asI97
(lp1641
I1
aI2
aI5
aI4
aI3
asI98
(lp1642
I2
asI101
(lp1643
I3
aI1
aI2
aI4
asI120
(lp1644
I5
aI2
aI1
aI4
aI3
asI121
(lp1645
I2
aI1
aI4
aI5
aI3
asa(dp1646
I4
(lp1647
I4
aI5
asI7
(lp1648
I3
aI5
aI1
aI2
asI10
(lp1649
I5
asI12
(lp1650
I5
aI2
aI3
aI4
aI1
asI13
(lp1651
I2
aI5
aI3
aI4
aI1
asI14
(lp1652
I2
aI5
asI17
(lp1653
I5
aI2
aI4
asI19
(lp1654
I5
aI2
aI4
aI1
aI3
asI20
(lp1655
I2
aI4
aI1
aI3
aI5
asI21
(lp1656
I4
aI2
asI34
(lp1657
I4
aI1
aI5
aI3
asI40
(lp1658
I1
aI5
aI4
asI43
(lp1659
I4
aI1
aI3
aI5
asI172
(lp1660
I2
aI5
aI3
aI1
aI4
asI179
(lp1661
I3
aI1
aI4
aI5
aI2
asI53
(lp1662
I1
aI5
aI3
aI2
asI57
(lp1663
I2
aI3
aI5
asI186
(lp1664
I4
aI3
aI5
aI2
asI63
(lp1665
I5
aI3
aI2
aI4
aI1
asI64
(lp1666
I5
aI3
aI2
aI4
aI1
asI65
(lp1667
I3
aI2
aI4
aI1
aI5
asI66
(lp1668
I2
aI4
aI1
asI72
(lp1669
I2
aI5
aI1
asI76
(lp1670
I1
aI5
asI79
(lp1671
I2
aI3
aI5
asI83
(lp1672
I5
aI4
aI2
aI1
asI85
(lp1673
I2
aI1
aI4
aI5
asI91
(lp1674
I5
aI1
aI2
aI3
asI93
(lp1675
I2
asI194
(lp1676
I2
aI1
asa(dp1677
I161
(lp1678
I5
asI68
(lp1679
I5
aI3
aI1
asI70
(lp1680
I1
aI4
aI2
asI9
(lp1681
I2
aI5
aI3
aI1
asI42
(lp1682
I3
asI75
(lp1683
I3
asI12
(lp1684
I3
aI2
asI111
(lp1685
I3
asI80
(lp1686
I2
asI17
(lp1687
I3
aI1
aI5
asI51
(lp1688
I2
aI3
aI4
aI1
asI21
(lp1689
I1
aI3
aI2
asI41
(lp1690
I1
aI3
aI2
aI4
aI5
asI95
(lp1691
I1
asI28
(lp1692
I3
asI170
(lp1693
I3
aI1
asI62
(lp1694
I3
aI2
aI1
asI85
(lp1695
I1
aI3
aI2
asa(dp1696
I57
(lp1697
I4
aI5
aI2
aI3
asI133
(lp1698
I5
aI1
asI4
(lp1699
I5
aI1
asI101
(lp1700
I2
aI3
aI4
asI6
(lp1701
I3
asI42
(lp1702
I1
aI4
aI2
asI139
(lp1703
I4
aI2
asI109
(lp1704
I3
aI1
aI4
aI2
asI13
(lp1705
I3
aI2
aI4
aI5
asI77
(lp1706
I2
asI50
(lp1707
I3
aI5
aI2
aI4
asI19
(lp1708
I4
asI53
(lp1709
I3
aI5
asI22
(lp1710
I1
aI5
aI3
aI4
aI2
asI23
(lp1711
I1
asI36
(lp1712
I2
aI4
asI26
(lp1713
I3
aI4
aI1
asI60
(lp1714
I5
aI2
aI4
aI3
asI93
(lp1715
I3
aI4
aI2
aI1
asI62
(lp1716
I4
aI2
asI85
(lp1717
I1
aI3
aI4
aI2
asa(dp1718
I129
(lp1719
I1
aI3
aI4
aI5
aI2
asI2
(lp1720
I5
asI4
(lp1721
I4
aI5
asI7
(lp1722
I5
asI9
(lp1723
I3
aI1
aI2
aI4
asI141
(lp1724
I4
asI18
(lp1725
I4
aI1
aI3
aI2
asI151
(lp1726
I5
asI25
(lp1727
I5
aI2
aI4
asI27
(lp1728
I2
aI4
aI1
aI3
aI5
asI28
(lp1729
I4
aI2
asI157
(lp1730
I5
aI4
asI37
(lp1731
I3
aI4
asI166
(lp1732
I4
aI5
asI169
(lp1733
I4
aI1
aI3
aI5
asI49
(lp1734
I4
aI1
aI2
asI55
(lp1735
I4
aI1
aI5
asI60
(lp1736
I3
asI190
(lp1737
I5
asI193
(lp1738
I4
aI2
aI3
aI5
asI69
(lp1739
I2
aI5
aI4
aI1
asI72
(lp1740
I5
aI4
aI2
aI1
asI74
(lp1741
I4
aI2
aI1
aI5
aI3
asI75
(lp1742
I2
aI1
aI5
aI3
asI80
(lp1743
I1
asI89
(lp1744
I2
aI5
aI3
asI92
(lp1745
I3
aI1
aI4
aI5
aI2
asI93
(lp1746
I3
aI1
aI4
asI98
(lp1747
I5
aI3
aI4
aI1
asI100
(lp1748
I5
aI3
aI4
aI1
aI2
asI101
(lp1749
I3
aI5
aI4
aI1
aI2
asa(dp1750
I192
(lp1751
I2
aI3
aI1
aI5
asI8
(lp1752
I1
asI13
(lp1753
I5
asI15
(lp1754
I3
aI1
asI20
(lp1755
I2
aI1
asI150
(lp1756
I1
aI2
asI25
(lp1757
I3
aI5
asI155
(lp1758
I2
aI1
aI4
asI28
(lp1759
I4
aI3
aI1
asI35
(lp1760
I4
aI2
asI41
(lp1761
I3
aI5
aI1
aI4
asI44
(lp1762
I5
asI46
(lp1763
I3
aI5
aI4
aI2
aI1
asI47
(lp1764
I5
aI4
aI2
asI49
(lp1765
I2
aI5
aI1
aI4
asI53
(lp1766
I1
aI2
asI61
(lp1767
I5
aI2
asI190
(lp1768
I5
aI4
aI2
aI3
asI63
(lp1769
I5
aI2
aI4
aI3
aI1
asI64
(lp1770
I5
aI2
aI4
aI3
aI1
asI65
(lp1771
I2
aI4
aI3
aI5
aI1
asI66
(lp1772
I4
aI2
asI73
(lp1773
I4
aI3
aI1
aI2
asI87
(lp1774
I5
aI4
aI1
aI3
aI2
asI88
(lp1775
I4
aI1
aI3
aI2
aI5
asI89
(lp1776
I1
aI3
aI4
aI2
asI98
(lp1777
I4
aI3
aI1
asI123
(lp1778
I2
aI1
aI5
asa(dp1779
I6
(lp1780
I5
aI3
aI4
aI1
asI8
(lp1781
I3
aI4
aI1
asI18
(lp1782
I2
aI1
asI152
(lp1783
I2
aI4
aI3
asI39
(lp1784
I2
aI5
aI1
asI42
(lp1785
I5
aI1
asI44
(lp1786
I1
aI2
aI4
aI3
aI5
asI45
(lp1787
I2
asI54
(lp1788
I4
asI184
(lp1789
I5
asI186
(lp1790
I3
asI61
(lp1791
I2
aI5
aI3
asI64
(lp1792
I3
aI5
aI4
aI2
aI1
asI65
(lp1793
I5
aI4
aI3
asI67
(lp1794
I4
aI3
aI2
aI5
aI1
asI68
(lp1795
I3
aI2
aI5
aI1
asI73
(lp1796
I4
asI78
(lp1797
I4
aI5
asI81
(lp1798
I1
aI5
aI3
aI2
aI4
asI82
(lp1799
I5
asI84
(lp1800
I3
aI2
aI1
asI97
(lp1801
I5
aI3
aI1
asI99
(lp1802
I1
aI3
aI5
asI105
(lp1803
I4
aI2
aI5
aI3
aI1
asa(dp1804
I48
(lp1805
I3
aI2
aI1
asI34
(lp1806
I5
aI1
asI36
(lp1807
I3
asI5
(lp1808
I3
aI4
asI65
(lp1809
I3
aI4
aI1
aI2
asI72
(lp1810
I2
aI5
aI1
aI4
aI3
asI60
(lp1811
I2
aI4
aI1
aI5
aI3
asI45
(lp1812
I3
aI5
aI2
aI1
asI76
(lp1813
I1
aI4
aI3
aI5
aI2
asI13
(lp1814
I5
aI1
aI2
aI3
asI77
(lp1815
I4
asI15
(lp1816
I1
aI2
aI3
aI4
aI5
asI16
(lp1817
I2
asI200
(lp1818
I1
aI5
aI2
aI3
aI4
asI85
(lp1819
I2
asI73
(lp1820
I2
aI5
asI111
(lp1821
I3
asI153
(lp1822
I3
asI59
(lp1823
I5
aI2
aI4
aI1
aI3
asI28
(lp1824
I1
aI3
asI61
(lp1825
I4
aI1
asa(dp1826
I129
(lp1827
I1
aI3
aI4
asI2
(lp1828
I5
aI2
aI1
aI3
aI4
asI3
(lp1829
I2
aI1
aI3
aI4
aI5
asI4
(lp1830
I1
aI3
asI19
(lp1831
I2
aI5
aI4
asI22
(lp1832
I1
aI5
aI2
aI4
asI152
(lp1833
I2
aI5
asI26
(lp1834
I5
asI28
(lp1835
I2
asI159
(lp1836
I2
aI1
asI36
(lp1837
I1
aI3
aI2
aI4
asI46
(lp1838
I1
aI5
aI4
asI49
(lp1839
I5
aI3
aI2
aI1
asI51
(lp1840
I2
aI1
aI4
asI182
(lp1841
I3
aI4
aI1
asI58
(lp1842
I4
aI2
aI3
asI193
(lp1843
I3
asI69
(lp1844
I3
aI1
aI5
aI4
asI74
(lp1845
I1
aI2
aI4
aI5
asI80
(lp1846
I3
aI4
aI2
asI85
(lp1847
I5
aI1
aI4
asI87
(lp1848
I5
aI1
aI4
aI3
aI2
asI88
(lp1849
I1
aI5
aI4
aI3
aI2
asI89
(lp1850
I5
asI91
(lp1851
I1
aI5
aI4
aI3
aI2
asI92
(lp1852
I5
asI94
(lp1853
I4
aI5
aI1
aI3
asI97
(lp1854
I4
asI102
(lp1855
I4
aI5
aI2
asI105
(lp1856
I2
aI3
asI115
(lp1857
I1
asa(dp1858
I6
(lp1859
I5
aI4
aI3
aI1
asI8
(lp1860
I3
aI4
aI1
aI2
asI140
(lp1861
I1
aI3
asI18
(lp1862
I3
aI4
aI2
aI1
aI5
asI19
(lp1863
I4
aI3
aI2
asI30
(lp1864
I4
aI2
aI5
aI1
asI161
(lp1865
I3
aI5
asI34
(lp1866
I4
asI164
(lp1867
I4
asI39
(lp1868
I2
aI3
asI169
(lp1869
I5
aI2
aI4
aI1
aI3
asI171
(lp1870
I5
aI4
asI175
(lp1871
I1
aI4
aI2
aI3
asI53
(lp1872
I5
aI4
aI1
asI55
(lp1873
I4
aI5
aI1
aI2
asI59
(lp1874
I4
asI63
(lp1875
I2
aI5
aI3
aI4
aI1
asI64
(lp1876
I2
aI5
asI67
(lp1877
I5
aI3
aI2
asI69
(lp1878
I2
aI3
aI4
asI76
(lp1879
I5
aI3
asI78
(lp1880
I2
aI5
aI1
asI81
(lp1881
I1
aI2
aI4
aI5
aI3
asI82
(lp1882
I2
asI87
(lp1883
I5
asI89
(lp1884
I3
aI1
aI5
aI2
aI4
asI90
(lp1885
I3
aI1
aI5
asI94
(lp1886
I2
asI99
(lp1887
I4
aI2
aI3
asI114
(lp1888
I5
aI2
aI1
aI3
aI4
asa(dp1889
I3
(lp1890
I5
aI4
aI1
aI3
aI2
asI4
(lp1891
I5
aI4
aI1
aI3
aI2
asI5
(lp1892
I4
aI1
aI3
aI2
aI5
asI6
(lp1893
I1
aI4
aI3
aI2
asI15
(lp1894
I5
aI2
aI4
aI1
aI3
asI16
(lp1895
I5
aI2
aI4
aI1
aI3
asI17
(lp1896
I2
aI4
aI1
aI5
aI3
asI18
(lp1897
I2
aI4
asI24
(lp1898
I5
aI4
aI1
aI3
aI2
asI25
(lp1899
I4
aI5
aI1
aI3
aI2
asI26
(lp1900
I5
aI1
aI3
aI2
asI28
(lp1901
I1
aI3
aI5
aI2
aI4
asI29
(lp1902
I3
asI32
(lp1903
I1
aI3
asI37
(lp1904
I1
aI5
aI4
aI2
aI3
asI38
(lp1905
I5
asI40
(lp1906
I5
aI2
aI4
aI3
asI42
(lp1907
I4
aI3
asI177
(lp1908
I3
aI4
aI2
aI5
asI50
(lp1909
I3
aI4
aI1
aI5
aI2
asI51
(lp1910
I3
aI4
aI1
asI56
(lp1911
I2
aI3
aI5
asI60
(lp1912
I5
aI2
aI4
asI62
(lp1913
I4
aI2
asI67
(lp1914
I5
aI3
aI2
aI4
asI69
(lp1915
I3
aI2
aI5
asI78
(lp1916
I3
aI4
asI82
(lp1917
I5
aI2
aI1
aI4
aI3
asI83
(lp1918
I2
aI1
aI4
aI3
aI5
asI84
(lp1919
I1
aI2
asI91
(lp1920
I5
asI93
(lp1921
I2
aI4
aI1
aI5
asI144
(lp1922
I5
aI4
aI3
asI106
(lp1923
I3
aI4
aI1
asI146
(lp1924
I3
aI5
aI2
aI4
asa(dp1925
I128
(lp1926
I1
aI3
aI5
asI97
(lp1927
I1
aI3
aI4
aI5
aI2
asI2
(lp1928
I3
asI155
(lp1929
I5
aI4
aI1
aI3
aI2
asI5
(lp1930
I2
aI3
asI134
(lp1931
I1
asI40
(lp1932
I1
aI2
aI4
asI9
(lp1933
I1
asI170
(lp1934
I4
aI1
asI87
(lp1935
I5
aI3
aI1
asI143
(lp1936
I4
aI2
aI1
aI5
asI98
(lp1937
I1
asI14
(lp1938
I5
aI4
aI3
aI1
aI2
asI15
(lp1939
I4
aI3
aI1
aI5
aI2
asI16
(lp1940
I3
aI4
aI1
aI5
asI21
(lp1941
I1
aI5
aI2
aI4
asI73
(lp1942
I4
aI3
aI2
aI1
asI24
(lp1943
I4
aI2
asI89
(lp1944
I1
aI4
aI2
asI119
(lp1945
I3
aI4
asI85
(lp1946
I5
aI3
aI1
asa(dp1947
I2
(lp1948
I3
aI4
aI2
aI5
asI7
(lp1949
I5
aI1
asI9
(lp1950
I4
asI15
(lp1951
I5
aI3
aI2
asI17
(lp1952
I2
aI3
aI5
asI148
(lp1953
I1
aI3
asI21
(lp1954
I1
aI4
aI5
asI25
(lp1955
I5
asI27
(lp1956
I3
aI1
aI4
aI2
asI41
(lp1957
I1
aI2
asI49
(lp1958
I1
aI4
aI3
aI5
asI54
(lp1959
I5
aI3
aI1
aI2
asI56
(lp1960
I1
aI2
aI5
asI61
(lp1961
I4
aI3
aI2
aI5
aI1
asI62
(lp1962
I3
aI2
aI5
aI4
asI66
(lp1963
I2
aI4
asI198
(lp1964
I4
aI2
aI3
aI1
asI77
(lp1965
I1
aI3
aI2
aI5
aI4
asI78
(lp1966
I1
asI86
(lp1967
I3
aI4
aI1
aI5
asI95
(lp1968
I2
aI3
asI99
(lp1969
I5
aI4
aI3
aI2
asI118
(lp1970
I5
asa(dp1971
I6
(lp1972
I4
aI3
asI135
(lp1973
I4
aI3
aI2
aI1
asI11
(lp1974
I3
aI1
aI2
asI146
(lp1975
I2
asI195
(lp1976
I4
asI21
(lp1977
I5
aI2
asI23
(lp1978
I5
aI2
aI3
aI4
aI1
asI24
(lp1979
I2
aI5
aI3
aI4
aI1
asI25
(lp1980
I5
aI3
asI27
(lp1981
I3
aI4
aI1
asI33
(lp1982
I1
aI5
asI37
(lp1983
I2
aI3
asI168
(lp1984
I5
aI3
aI1
aI4
asI170
(lp1985
I5
aI1
aI4
asI45
(lp1986
I1
aI4
asI187
(lp1987
I4
aI2
aI5
aI3
asI62
(lp1988
I5
aI3
asI64
(lp1989
I3
aI5
aI2
aI4
aI1
asI65
(lp1990
I5
aI2
aI3
asI67
(lp1991
I3
aI5
asI70
(lp1992
I2
aI4
aI1
aI5
asI199
(lp1993
I4
aI3
aI5
aI1
asI77
(lp1994
I2
aI5
aI1
aI3
aI4
asI78
(lp1995
I5
aI2
asI80
(lp1996
I5
aI1
asI82
(lp1997
I3
asI103
(lp1998
I1
asI115
(lp1999
I4
aI2
aI3
aI1
aI5
asa(dp2000
I131
(lp2001
I1
asI11
(lp2002
I2
aI1
aI5
aI4
asI17
(lp2003
I4
aI2
aI5
aI1
asI22
(lp2004
I4
aI1
aI5
aI3
asI26
(lp2005
I3
aI4
aI2
aI1
aI5
asI27
(lp2006
I4
aI2
aI1
asI167
(lp2007
I2
aI1
aI4
asI43
(lp2008
I5
asI45
(lp2009
I5
aI2
aI1
aI3
aI4
asI46
(lp2010
I5
aI2
aI1
aI3
aI4
asI47
(lp2011
I2
aI5
aI1
aI3
aI4
asI48
(lp2012
I5
aI1
asI50
(lp2013
I1
asI181
(lp2014
I3
aI4
aI5
aI1
aI2
asI55
(lp2015
I2
asI185
(lp2016
I5
asI190
(lp2017
I3
aI1
aI2
aI4
asI69
(lp2018
I2
aI4
asI77
(lp2019
I4
aI3
aI2
aI1
aI5
asI78
(lp2020
I3
aI2
aI1
aI5
asI86
(lp2021
I2
aI5
aI4
aI3
asI90
(lp2022
I5
aI4
asI92
(lp2023
I3
aI5
aI2
aI1
asI95
(lp2024
I2
aI5
aI3
aI1
aI4
asI96
(lp2025
I5
aI3
asI98
(lp2026
I1
aI3
aI2
asI178
(lp2027
I3
aI5
aI4
aI1
asa(dp2028
I7
(lp2029
I2
aI3
aI5
aI1
asI12
(lp2030
I2
aI5
aI3
aI1
aI4
asI13
(lp2031
I5
aI3
asI15
(lp2032
I3
aI1
aI4
aI5
aI2
asI16
(lp2033
I1
aI3
aI4
asI26
(lp2034
I4
asI29
(lp2035
I4
aI2
aI5
aI1
aI3
asI30
(lp2036
I4
aI2
aI5
aI1
asI35
(lp2037
I5
aI1
aI4
aI2
asI37
(lp2038
I4
asI168
(lp2039
I3
asI41
(lp2040
I3
asI53
(lp2041
I3
asI62
(lp2042
I4
asI195
(lp2043
I1
aI4
asI68
(lp2044
I1
aI5
aI3
aI2
aI4
asI69
(lp2045
I5
asI71
(lp2046
I3
aI1
aI2
aI4
aI5
asI72
(lp2047
I1
aI2
aI4
asI163
(lp2048
I4
aI1
aI5
aI3
aI2
asI94
(lp2049
I3
aI2
aI5
aI1
aI4
asI95
(lp2050
I2
aI5
aI1
asI99
(lp2051
I2
asa(dp2052
I4
(lp2053
I5
aI1
aI4
aI2
aI3
asI5
(lp2054
I1
aI4
aI2
aI3
aI5
asI6
(lp2055
I4
asI135
(lp2056
I3
aI4
aI1
asI18
(lp2057
I5
aI2
aI1
aI4
aI3
asI19
(lp2058
I2
aI1
aI5
aI4
aI3
asI20
(lp2059
I1
aI5
asI23
(lp2060
I4
aI2
aI5
aI3
asI132
(lp2061
I1
aI5
asI30
(lp2062
I2
aI4
aI3
aI1
asI167
(lp2063
I2
aI3
aI4
aI1
aI5
asI43
(lp2064
I4
aI2
aI1
aI5
aI3
asI44
(lp2065
I4
aI2
aI1
aI5
asI178
(lp2066
I4
aI2
aI1
asI51
(lp2067
I4
aI2
aI5
aI1
asI55
(lp2068
I2
aI5
asI59
(lp2069
I5
aI1
asI61
(lp2070
I1
aI4
aI2
aI5
aI3
asI62
(lp2071
I4
asI191
(lp2072
I3
aI1
aI2
asI67
(lp2073
I4
asI74
(lp2074
I1
aI2
aI3
asI81
(lp2075
I5
aI4
aI1
aI2
aI3
asI82
(lp2076
I4
aI1
aI2
aI5
aI3
asI83
(lp2077
I1
aI4
aI2
aI5
asI94
(lp2078
I1
aI5
asI97
(lp2079
I3
asI120
(lp2080
I1
asI126
(lp2081
I3
aI1
aI5
aI2
asa(dp2082
I131
(lp2083
I5
aI1
aI3
aI2
asI4
(lp2084
I5
aI4
aI1
aI3
asI133
(lp2085
I1
aI3
aI2
aI5
aI4
asI6
(lp2086
I1
aI3
aI4
aI2
asI139
(lp2087
I3
aI1
aI4
aI2
aI5
asI140
(lp2088
I3
aI1
aI4
asI14
(lp2089
I4
aI5
aI2
aI1
aI3
asI15
(lp2090
I5
aI2
aI4
aI1
asI17
(lp2091
I4
aI1
asI148
(lp2092
I3
asI153
(lp2093
I2
aI3
aI1
asI197
(lp2094
I3
aI2
asI32
(lp2095
I4
aI2
aI3
aI1
asI162
(lp2096
I3
aI5
aI2
aI1
aI4
asI134
(lp2097
I3
asI168
(lp2098
I2
aI1
aI5
aI4
aI3
asI41
(lp2099
I3
aI4
aI1
asI51
(lp2100
I5
aI3
aI2
asI53
(lp2101
I3
aI2
aI1
asI183
(lp2102
I3
asI62
(lp2103
I5
aI3
asI64
(lp2104
I4
aI3
aI2
asI69
(lp2105
I4
asI80
(lp2106
I3
aI2
aI5
aI1
aI4
asI81
(lp2107
I2
aI5
aI1
asI84
(lp2108
I2
aI1
asI91
(lp2109
I1
aI5
asI94
(lp2110
I3
asI118
(lp2111
I4
aI5
aI2
asI126
(lp2112
I2
aI5
aI4
asa(dp2113
I130
(lp2114
I1
aI2
asI86
(lp2115
I3
aI5
asI38
(lp2116
I3
aI2
asI72
(lp2117
I1
aI5
asI10
(lp2118
I1
aI2
aI3
aI5
asI76
(lp2119
I4
aI2
asI178
(lp2120
I3
aI2
aI4
asI49
(lp2121
I4
aI1
aI3
asI18
(lp2122
I1
asI83
(lp2123
I3
asI21
(lp2124
I2
aI4
aI1
aI3
aI5
asI22
(lp2125
I4
aI1
asI185
(lp2126
I5
aI1
aI4
asI89
(lp2127
I2
aI3
aI4
aI1
asI122
(lp2128
I2
aI4
aI5
aI1
aI3
asI104
(lp2129
I2
aI4
asI117
(lp2130
I1
asa(dp2131
I133
(lp2132
I3
aI4
asI33
(lp2133
I2
aI4
aI1
aI3
aI5
asI34
(lp2134
I4
aI1
asI107
(lp2135
I4
aI3
aI1
aI2
asI132
(lp2136
I2
aI3
aI4
aI5
aI1
asI69
(lp2137
I3
aI4
aI5
asI8
(lp2138
I1
aI5
aI4
aI3
asI73
(lp2139
I4
asI11
(lp2140
I4
asI144
(lp2141
I5
aI3
asI146
(lp2142
I3
aI5
aI2
aI4
aI1
asI52
(lp2143
I1
aI3
aI2
aI5
asI86
(lp2144
I3
aI5
aI2
aI4
asI58
(lp2145
I4
aI5
asI188
(lp2146
I1
aI2
aI5
aI4
asI90
(lp2147
I3
aI2
aI4
asI62
(lp2148
I1
aI3
aI2
asI31
(lp2149
I5
asa(dp2150
I131
(lp2151
I2
aI1
aI5
asI8
(lp2152
I2
asI13
(lp2153
I3
aI2
aI1
asI150
(lp2154
I3
aI2
aI4
aI1
asI24
(lp2155
I3
aI1
aI5
asI29
(lp2156
I1
aI2
asI161
(lp2157
I4
aI3
aI1
aI5
asI40
(lp2158
I1
aI2
asI45
(lp2159
I3
asI49
(lp2160
I4
aI5
aI3
aI2
aI1
asI50
(lp2161
I5
aI3
aI2
aI4
asI52
(lp2162
I3
aI2
aI5
asI56
(lp2163
I5
aI3
asI58
(lp2164
I2
aI4
aI1
asI70
(lp2165
I1
aI5
aI2
asI73
(lp2166
I1
asI76
(lp2167
I3
aI1
asI84
(lp2168
I2
aI5
aI3
asI88
(lp2169
I5
aI4
aI3
asI90
(lp2170
I3
aI4
aI5
aI2
asI95
(lp2171
I2
aI3
aI1
aI5
aI4
asI96
(lp2172
I3
aI1
asI168
(lp2173
I4
asI123
(lp2174
I3
aI2
aI5
aI1
asI127
(lp2175
I1
asa(dp2176
I9
(lp2177
I1
aI5
aI3
aI2
aI4
asI10
(lp2178
I5
asI12
(lp2179
I3
asI17
(lp2180
I3
asI21
(lp2181
I2
aI4
aI5
aI3
aI1
asI22
(lp2182
I4
aI2
asI153
(lp2183
I1
asI26
(lp2184
I5
aI1
aI4
asI28
(lp2185
I1
asI161
(lp2186
I1
aI2
aI4
asI35
(lp2187
I3
asI39
(lp2188
I1
aI4
aI5
aI2
aI3
asI40
(lp2189
I4
asI45
(lp2190
I2
aI4
aI3
aI5
asI51
(lp2191
I5
aI1
asI53
(lp2192
I3
asI193
(lp2193
I2
aI5
aI3
aI1
asI69
(lp2194
I3
aI2
asI78
(lp2195
I1
aI5
aI3
aI2
aI4
asI79
(lp2196
I5
asI81
(lp2197
I1
asI95
(lp2198
I5
aI1
asI97
(lp2199
I1
aI5
aI2
aI4
aI3
asI98
(lp2200
I5
asI116
(lp2201
I5
asa(dp2202
I3
(lp2203
I5
aI3
aI4
asI5
(lp2204
I5
aI4
aI2
asI134
(lp2205
I4
aI3
aI5
aI2
asI7
(lp2206
I5
aI2
aI4
aI3
asI9
(lp2207
I4
aI2
asI15
(lp2208
I5
aI3
aI4
aI1
aI2
asI16
(lp2209
I3
aI4
aI1
aI5
aI2
asI17
(lp2210
I4
aI1
aI5
asI22
(lp2211
I4
aI2
aI3
aI1
asI40
(lp2212
I2
asI43
(lp2213
I1
aI5
asI46
(lp2214
I5
aI4
aI1
asI48
(lp2215
I4
aI1
aI5
aI3
asI53
(lp2216
I5
aI1
aI3
asI55
(lp2217
I3
asI184
(lp2218
I3
aI5
asI187
(lp2219
I1
aI3
aI2
asI62
(lp2220
I1
asI67
(lp2221
I1
aI2
aI3
asI73
(lp2222
I5
aI1
asI75
(lp2223
I4
asI81
(lp2224
I5
aI4
aI2
aI1
aI3
asI82
(lp2225
I5
aI4
aI2
aI1
aI3
asI83
(lp2226
I4
aI2
aI1
aI3
aI5
asI84
(lp2227
I2
aI4
aI1
aI3
asI95
(lp2228
I1
asI118
(lp2229
I5
asI120
(lp2230
I1
aI2
asa(dp2231
I3
(lp2232
I3
aI1
asI7
(lp2233
I5
aI3
aI2
asI9
(lp2234
I2
aI1
aI3
asI19
(lp2235
I1
aI3
aI2
asI26
(lp2236
I2
aI5
asI156
(lp2237
I5
asI29
(lp2238
I2
asI161
(lp2239
I3
asI40
(lp2240
I5
aI2
aI3
asI42
(lp2241
I5
aI3
asI44
(lp2242
I2
aI5
aI3
asI174
(lp2243
I2
aI4
asI47
(lp2244
I3
aI4
asI51
(lp2245
I1
aI2
aI4
aI5
asI181
(lp2246
I5
aI3
aI4
aI2
asI58
(lp2247
I5
aI1
aI4
asI60
(lp2248
I1
asI64
(lp2249
I1
asI78
(lp2250
I5
aI4
aI3
asI80
(lp2251
I4
aI3
aI1
aI5
aI2
asI81
(lp2252
I3
aI1
aI4
aI5
asI86
(lp2253
I1
aI5
aI4
asI89
(lp2254
I3
aI4
aI2
aI1
asI97
(lp2255
I3
aI2
aI4
aI1
asI111
(lp2256
I5
asa(dp2257
I2
(lp2258
I3
aI2
aI5
asI137
(lp2259
I5
aI1
aI3
aI2
aI4
asI138
(lp2260
I1
aI3
aI2
aI4
aI5
asI16
(lp2261
I3
aI4
aI1
aI2
asI145
(lp2262
I5
aI3
aI1
aI2
asI24
(lp2263
I5
aI2
aI4
asI26
(lp2264
I4
aI1
asI32
(lp2265
I4
asI38
(lp2266
I2
aI1
aI3
asI54
(lp2267
I3
aI5
aI2
aI1
aI4
asI9
(lp2268
I2
aI3
asI57
(lp2269
I5
aI3
aI2
aI1
aI4
asI58
(lp2270
I3
aI5
aI2
aI1
aI4
asI59
(lp2271
I5
aI2
aI1
asI61
(lp2272
I2
aI1
aI4
aI3
aI5
asI62
(lp2273
I1
aI4
asI69
(lp2274
I2
aI3
aI4
asI55
(lp2275
I5
aI3
aI2
asI81
(lp2276
I2
aI3
aI1
aI4
aI5
asI82
(lp2277
I3
aI1
asI88
(lp2278
I3
aI1
asI93
(lp2279
I4
aI2
asI124
(lp2280
I2
aI3
aI4
aI1
aI5
asI125
(lp2281
I3
aI4
asa(dp2282
I132
(lp2283
I2
aI4
aI1
asI5
(lp2284
I2
aI1
aI4
aI3
aI5
asI6
(lp2285
I1
aI4
asI193
(lp2286
I2
aI1
asI19
(lp2287
I2
aI3
aI1
aI4
aI5
asI20
(lp2288
I3
aI2
asI151
(lp2289
I4
aI3
aI1
aI5
aI2
asI31
(lp2290
I2
aI1
aI5
asI162
(lp2291
I2
aI5
aI1
aI3
aI4
asI163
(lp2292
I5
aI1
asI37
(lp2293
I2
aI1
aI4
aI5
asI44
(lp2294
I2
aI1
aI5
aI3
asI48
(lp2295
I3
aI2
aI1
asI179
(lp2296
I2
aI5
aI3
aI4
aI1
asI180
(lp2297
I5
aI3
asI54
(lp2298
I4
asI65
(lp2299
I4
aI5
aI2
asI68
(lp2300
I4
aI2
aI1
aI5
aI3
asI69
(lp2301
I2
aI1
aI5
aI4
asI73
(lp2302
I1
aI4
aI2
aI3
aI5
asI74
(lp2303
I4
asI90
(lp2304
I5
aI3
aI2
asI92
(lp2305
I3
aI2
aI1
asI165
(lp2306
I1
asI114
(lp2307
I5
aI2
asa(dp2308
I133
(lp2309
I3
aI1
asI6
(lp2310
I3
aI5
aI4
aI1
aI2
asI7
(lp2311
I5
aI4
aI3
asI9
(lp2312
I4
aI3
aI1
aI2
aI5
asI10
(lp2313
I4
aI3
aI1
aI2
asI18
(lp2314
I4
aI5
aI2
aI1
asI21
(lp2315
I5
aI2
asI150
(lp2316
I4
aI1
aI2
asI23
(lp2317
I2
aI5
asI26
(lp2318
I1
aI4
aI5
aI3
asI30
(lp2319
I4
asI33
(lp2320
I3
aI5
aI1
aI2
asI163
(lp2321
I5
aI1
aI4
aI2
asI36
(lp2322
I3
asI40
(lp2323
I1
aI2
aI4
aI3
aI5
asI41
(lp2324
I2
asI50
(lp2325
I1
aI4
aI5
aI2
asI54
(lp2326
I1
aI3
asI59
(lp2327
I5
aI1
aI4
asI61
(lp2328
I5
asI63
(lp2329
I5
aI2
aI4
aI1
asI65
(lp2330
I4
aI1
asI79
(lp2331
I3
aI4
asI85
(lp2332
I2
aI5
asI88
(lp2333
I4
asI93
(lp2334
I1
asI98
(lp2335
I5
aI1
aI3
aI2
asI101
(lp2336
I1
aI3
aI5
aI2
aI4
asI102
(lp2337
I1
asI111
(lp2338
I4
aI3
aI1
aI5
asI168
(lp2339
I2
asa(dp2340
I3
(lp2341
I1
aI5
aI3
asI6
(lp2342
I4
aI1
aI3
asI13
(lp2343
I4
asI142
(lp2344
I3
aI1
aI2
asI18
(lp2345
I3
asI21
(lp2346
I2
asI25
(lp2347
I5
asI154
(lp2348
I2
asI27
(lp2349
I4
aI5
asI157
(lp2350
I5
aI2
asI30
(lp2351
I2
aI4
asI35
(lp2352
I1
asI38
(lp2353
I3
aI4
asI175
(lp2354
I4
aI3
aI5
aI1
aI2
asI48
(lp2355
I2
aI4
aI3
aI1
asI180
(lp2356
I5
asI57
(lp2357
I4
aI3
asI61
(lp2358
I1
aI3
asI79
(lp2359
I1
aI2
aI5
aI3
aI4
asI80
(lp2360
I2
asI84
(lp2361
I2
aI3
aI5
aI1
aI4
asI85
(lp2362
I3
aI5
asI88
(lp2363
I2
aI3
aI5
aI1
aI4
asI89
(lp2364
I3
aI2
asI93
(lp2365
I1
aI4
asI166
(lp2366
I1
aI4
aI5
aI2
asa(dp2367
I5
(lp2368
I5
aI2
aI4
aI3
aI1
asI6
(lp2369
I2
aI5
aI4
aI3
aI1
asI7
(lp2370
I5
aI4
asI9
(lp2371
I5
aI4
aI3
aI2
aI1
asI10
(lp2372
I5
aI4
aI3
aI2
aI1
asI11
(lp2373
I4
aI3
aI2
aI1
aI5
asI12
(lp2374
I4
aI3
aI2
aI1
asI23
(lp2375
I1
asI27
(lp2376
I2
aI3
aI4
aI1
asI34
(lp2377
I2
asI164
(lp2378
I3
aI2
aI4
asI38
(lp2379
I2
aI3
asI173
(lp2380
I4
aI2
aI3
aI5
aI1
asI174
(lp2381
I2
aI3
aI5
aI1
asI56
(lp2382
I1
aI2
aI5
asI60
(lp2383
I3
asI138
(lp2384
I2
aI1
aI5
aI3
asI194
(lp2385
I5
aI2
aI1
asI69
(lp2386
I2
aI5
aI1
aI3
aI4
asI70
(lp2387
I5
aI1
asI72
(lp2388
I3
asI97
(lp2389
I4
aI2
aI1
aI5
asa(dp2390
I65
(lp2391
I4
asI2
(lp2392
I4
aI3
aI1
aI2
asI68
(lp2393
I2
aI3
asI98
(lp2394
I3
asI81
(lp2395
I2
aI1
asI200
(lp2396
I5
aI4
aI1
asI105
(lp2397
I3
aI1
aI5
aI4
asI44
(lp2398
I4
aI1
aI3
aI5
aI2
asI45
(lp2399
I1
aI3
aI5
aI4
asI16
(lp2400
I4
asI49
(lp2401
I5
aI2
aI4
aI3
asI51
(lp2402
I4
aI3
asI85
(lp2403
I2
aI3
asI56
(lp2404
I4
aI3
aI5
aI1
asI27
(lp2405
I2
aI4
aI1
asI92
(lp2406
I2
asI61
(lp2407
I3
aI5
aI1
aI4
asa(dp2408
I33
(lp2409
I4
aI1
aI2
aI5
aI3
asI34
(lp2410
I1
aI2
aI4
aI5
asI4
(lp2411
I3
asI69
(lp2412
I4
asI72
(lp2413
I2
aI3
aI1
aI4
asI41
(lp2414
I3
aI4
aI5
aI1
asI170
(lp2415
I4
aI5
aI1
asI46
(lp2416
I1
aI4
aI2
aI5
asI136
(lp2417
I2
aI1
aI3
asI18
(lp2418
I1
aI5
asI83
(lp2419
I3
aI1
aI4
aI5
asI52
(lp2420
I4
asI89
(lp2421
I3
aI5
aI1
asI23
(lp2422
I2
aI1
aI4
aI3
asI57
(lp2423
I3
aI2
asI179
(lp2424
I2
aI3
aI5
asI95
(lp2425
I4
aI2
aI1
asI92
(lp2426
I1
aI5
aI3
aI4
aI2
asI93
(lp2427
I5
asI169
(lp2428
I3
aI4
aI5
aI1
aI2
asI63
(lp2429
I3
aI2
aI4
aI5
asa(dp2430
I32
(lp2431
I4
aI2
aI3
asI193
(lp2432
I3
aI4
aI5
aI1
aI2
asI98
(lp2433
I3
aI4
asI123
(lp2434
I1
aI3
aI2
aI5
asI165
(lp2435
I3
aI1
aI2
aI5
aI4
asI72
(lp2436
I4
aI1
aI2
asI130
(lp2437
I2
asI46
(lp2438
I5
aI4
aI2
asI48
(lp2439
I2
aI3
aI5
aI4
asI56
(lp2440
I2
aI1
asI84
(lp2441
I4
asI54
(lp2442
I5
aI2
aI1
aI3
asI23
(lp2443
I4
aI1
aI2
aI3
aI5
asI24
(lp2444
I1
aI2
aI3
aI5
asI90
(lp2445
I2
aI4
aI1
aI3
aI5
asI91
(lp2446
I4
aI1
asI60
(lp2447
I4
aI2
aI3
asI190
(lp2448
I5
aI3
aI4
asI31
(lp2449
I3
aI4
aI2
aI1
aI5
asa(dp2450
I3
(lp2451
I1
aI2
aI3
asI9
(lp2452
I3
asI145
(lp2453
I4
asI18
(lp2454
I4
asI131
(lp2455
I3
aI2
aI1
aI4
asI25
(lp2456
I3
aI4
aI1
asI157
(lp2457
I4
aI2
aI3
aI1
aI5
asI158
(lp2458
I2
aI4
aI3
aI1
asI40
(lp2459
I1
aI4
aI5
aI2
asI44
(lp2460
I5
aI4
asI46
(lp2461
I2
aI3
aI5
aI1
asI51
(lp2462
I4
asI60
(lp2463
I2
asI69
(lp2464
I4
aI5
aI3
aI1
aI2
asI70
(lp2465
I5
aI3
aI4
aI1
asI72
(lp2466
I3
aI4
aI1
aI2
aI5
asI73
(lp2467
I4
aI1
aI2
asI81
(lp2468
I5
aI2
aI4
aI1
asI83
(lp2469
I5
aI4
asI85
(lp2470
I1
aI3
aI4
aI5
asI97
(lp2471
I5
aI2
asI99
(lp2472
I2
aI5
aI4
aI3
aI1
asI102
(lp2473
I3
aI4
aI5
aI2
asI113
(lp2474
I5
aI1
aI4
aI3
asI115
(lp2475
I1
asa(dp2476
I51
(lp2477
I2
aI5
aI4
asI136
(lp2478
I2
aI3
aI5
aI1
asI13
(lp2479
I2
aI5
aI1
aI4
asI17
(lp2480
I2
asI23
(lp2481
I3
aI4
aI1
asI157
(lp2482
I2
aI1
asI39
(lp2483
I5
aI4
asI41
(lp2484
I2
aI5
aI4
aI1
asI45
(lp2485
I2
aI1
aI5
aI3
asI50
(lp2486
I3
aI2
aI5
aI4
aI1
asI179
(lp2487
I5
aI4
asI55
(lp2488
I4
aI2
asI60
(lp2489
I3
aI1
asI66
(lp2490
I5
asI68
(lp2491
I5
asI70
(lp2492
I2
asI81
(lp2493
I4
aI3
aI1
aI2
aI5
asI82
(lp2494
I3
aI1
aI2
aI4
asI91
(lp2495
I3
aI4
aI2
asI167
(lp2496
I3
aI1
aI5
aI2
asI118
(lp2497
I5
aI2
aI1
aI3
asI126
(lp2498
I4
aI5
aI2
asa(dp2499
I129
(lp2500
I3
aI5
asI8
(lp2501
I3
aI1
aI2
asI173
(lp2502
I2
aI1
aI4
aI5
asI21
(lp2503
I4
aI3
aI1
aI5
aI2
asI22
(lp2504
I3
aI1
aI5
aI4
asI28
(lp2505
I4
aI3
aI2
aI1
aI5
asI29
(lp2506
I3
aI2
aI1
aI4
asI166
(lp2507
I3
asI44
(lp2508
I2
aI1
aI5
aI3
aI4
asI45
(lp2509
I1
aI5
asI48
(lp2510
I3
aI5
aI1
aI4
aI2
asI49
(lp2511
I5
aI1
aI4
asI51
(lp2512
I1
aI4
aI3
aI5
aI2
asI52
(lp2513
I4
asI57
(lp2514
I3
aI1
aI4
aI2
asI65
(lp2515
I1
aI3
aI2
asI194
(lp2516
I3
asI81
(lp2517
I2
aI5
aI4
aI1
aI3
asI82
(lp2518
I5
aI2
asI84
(lp2519
I2
aI4
asI89
(lp2520
I4
asI92
(lp2521
I5
aI2
aI3
aI4
aI1
asI93
(lp2522
I2
aI5
aI3
aI4
aI1
asI94
(lp2523
I5
aI2
asI96
(lp2524
I2
aI3
asI112
(lp2525
I1
aI4
aI5
asa(dp2526
I4
(lp2527
I1
asI135
(lp2528
I1
aI2
aI5
aI4
asI12
(lp2529
I4
aI5
aI3
aI1
aI2
asI13
(lp2530
I5
aI4
aI3
aI1
asI15
(lp2531
I3
aI4
aI1
aI2
asI145
(lp2532
I1
asI22
(lp2533
I4
asI27
(lp2534
I4
aI5
aI2
asI30
(lp2535
I4
aI5
asI159
(lp2536
I1
aI3
asI33
(lp2537
I1
aI3
aI5
aI4
asI38
(lp2538
I5
aI4
aI3
aI1
aI2
asI39
(lp2539
I4
aI5
aI3
aI1
aI2
asI40
(lp2540
I5
aI3
aI4
aI1
asI42
(lp2541
I3
aI4
aI1
aI2
aI5
asI43
(lp2542
I3
aI4
aI1
asI172
(lp2543
I1
aI3
aI2
aI5
asI51
(lp2544
I3
asI57
(lp2545
I3
aI4
aI5
aI1
aI2
asI58
(lp2546
I4
aI3
aI5
asI63
(lp2547
I2
asI67
(lp2548
I3
asI70
(lp2549
I4
asI73
(lp2550
I4
aI5
aI2
asI76
(lp2551
I2
aI3
asI81
(lp2552
I3
asI87
(lp2553
I3
aI4
aI1
aI5
asI94
(lp2554
I2
aI3
aI5
aI4
aI1
asI95
(lp2555
I3
aI2
asI101
(lp2556
I4
aI2
aI5
aI3
asI105
(lp2557
I3
aI4
aI2
asI140
(lp2558
I4
aI3
aI1
aI5
aI2
asI127
(lp2559
I2
aI3
aI1
asa(dp2560
I8
(lp2561
I2
aI4
aI5
asI12
(lp2562
I2
aI4
aI1
asI19
(lp2563
I3
aI1
aI5
aI2
aI4
asI20
(lp2564
I1
aI5
aI2
asI23
(lp2565
I1
aI3
asI27
(lp2566
I1
aI2
aI4
aI5
aI3
asI28
(lp2567
I2
asI32
(lp2568
I1
aI3
aI4
aI5
aI2
asI33
(lp2569
I3
asI38
(lp2570
I4
aI3
aI2
aI5
aI1
asI39
(lp2571
I3
aI4
aI2
aI5
asI176
(lp2572
I4
asI45
(lp2573
I4
asI48
(lp2574
I2
aI4
aI5
aI1
asI56
(lp2575
I2
aI4
asI188
(lp2576
I1
aI5
aI3
asI72
(lp2577
I5
aI4
aI1
aI3
aI2
asI73
(lp2578
I4
aI1
aI3
aI2
aI5
asI74
(lp2579
I1
aI4
aI3
aI2
asI84
(lp2580
I1
aI5
aI2
aI4
aI3
asI85
(lp2581
I5
asI87
(lp2582
I5
aI2
aI1
aI4
aI3
asI88
(lp2583
I2
aI1
aI5
aI4
aI3
asI89
(lp2584
I2
aI1
asI94
(lp2585
I1
asI98
(lp2586
I3
aI2
aI1
aI5
aI4
asI99
(lp2587
I2
aI1
aI5
asa(dp2588
I3
(lp2589
I1
asI7
(lp2590
I4
aI1
aI2
asI145
(lp2591
I5
aI3
aI4
asI24
(lp2592
I2
aI5
asI27
(lp2593
I5
aI1
aI2
asI29
(lp2594
I1
asI37
(lp2595
I2
asI43
(lp2596
I5
aI3
aI1
asI45
(lp2597
I3
aI5
aI1
aI4
aI2
asI46
(lp2598
I5
aI1
aI4
asI48
(lp2599
I1
aI4
aI3
aI5
aI2
asI49
(lp2600
I4
asI182
(lp2601
I2
aI4
aI3
asI61
(lp2602
I4
aI3
aI1
aI5
asI194
(lp2603
I5
aI2
asI68
(lp2604
I1
aI2
aI3
aI4
asI74
(lp2605
I4
aI3
asI90
(lp2606
I3
aI4
aI2
asI135
(lp2607
I2
asI112
(lp2608
I5
aI4
aI3
asI114
(lp2609
I3
aI1
aI4
aI2
asI126
(lp2610
I1
aI2
aI5
aI3
aI4
asa.