(dp1
S'nfile'
p2
S'none'
p3
sS'paramfile'
p4
S'input/MAR_params.txt'
p5
sS'dffile'
p6
S'input/MAR_iv_healthy.txt'
p7
sS'sfile'
p8
g3
sS'ivfile'
p9
g7
sS'cmfile'
p10
g3
sS'ffile'
p11
g3
sS'hfile'
p12
g3
s.